EXPORTS
    ConvertUTF16toUTF32 @1
    ConvertUTF16toUTF8 @2
    ConvertUTF32toUTF16 @3
    ConvertUTF32toUTF8 @4
    ConvertUTF8toUTF16 @5
    ConvertUTF8toUTF32 @6
    Display64BitsSize @7
    LoadCentralDirectoryRecord @8
    Write_EndOfCentralDirectoryRecord @9
    Write_GlobalComment @10
    Write_LocalFileHeader @11
    Write_Zip64EndOfCentralDirectoryLocator @12
    Write_Zip64EndOfCentralDirectoryRecord @13
    _ZGVZNK15CSimpleIniTemplIc9SI_NoCaseIcE11SI_ConvertAIcEE5Entry8KeyOrderclERKS5_S8_E6isLess @14 DATA
    _ZGVZNK15CSimpleIniTemplIc9SI_NoCaseIcE11SI_ConvertAIcEE6IsLessEPKcS6_E6isLess @15 DATA
    _ZN10FileLoader10forced_dirE @16 DATA
    _ZN10FileLoader11extractfileESsSs @17
    _ZN10FileLoader11extractfileESsSsbbSsbSs @18
    _ZN10FileLoader17__ar_extract_initEbbbSs @19
    _ZN10FileLoader3Ini8getvalueESsSs @20
    _ZN10FileLoader3IniC1ESs @21
    _ZN10FileLoader3IniC2ESs @22
    _ZN10FileLoader3IniD0Ev @23
    _ZN10FileLoader3IniD1Ev @24
    _ZN10FileLoader3IniD2Ev @25
    _ZN10FileLoader7getlineESsi @26
    _ZN10FileLoader8forcedirE @27 DATA
    _ZN10FileLoader9checkfileESs @28
    _ZN10FileLoader9noarchiveE @29 DATA
    _ZN10FileLoader9noremovalE @30 DATA
    _ZN10FileLoader9totalfileESs @31
    _ZN11SI_ConvertAIcE13SizeFromStoreEPKcj @32
    _ZN11SI_ConvertAIcE16ConvertFromStoreEPKcjPcj @33
    _ZN11SI_ConvertAIcEC1Eb @34
    _ZN15CSimpleIniTemplIc9SI_NoCaseIcE11SI_ConvertAIcEE10CopyStringERPKc @35
    _ZN15CSimpleIniTemplIc9SI_NoCaseIcE11SI_ConvertAIcEE12DeleteStringEPKc @36
    _ZN15CSimpleIniTemplIc9SI_NoCaseIcE11SI_ConvertAIcEE15FindFileCommentERPcb @37
    _ZN15CSimpleIniTemplIc9SI_NoCaseIcE11SI_ConvertAIcEE5EntryC1EPKci @38
    _ZN15CSimpleIniTemplIc9SI_NoCaseIcE11SI_ConvertAIcEE5EntryC1ERKS5_ @39
    _ZN15CSimpleIniTemplIc9SI_NoCaseIcE11SI_ConvertAIcEE5EntryD1Ev @40
    _ZN15CSimpleIniTemplIc9SI_NoCaseIcE11SI_ConvertAIcEE5EntryaSERKS5_ @41
    _ZN15CSimpleIniTemplIc9SI_NoCaseIcE11SI_ConvertAIcEE5ResetEv @42
    _ZN15CSimpleIniTemplIc9SI_NoCaseIcE11SI_ConvertAIcEE6DeleteEPKcS6_b @43
    _ZN15CSimpleIniTemplIc9SI_NoCaseIcE11SI_ConvertAIcEE8AddEntryEPKcS6_S6_S6_bb @44
    _ZN15CSimpleIniTemplIc9SI_NoCaseIcE11SI_ConvertAIcEE8LoadDataEPKcj @45
    _ZN15CSimpleIniTemplIc9SI_NoCaseIcE11SI_ConvertAIcEE8LoadFileEP6_iobuf @46
    _ZN15CSimpleIniTemplIc9SI_NoCaseIcE11SI_ConvertAIcEE8LoadFileEPKc @47
    _ZN15CSimpleIniTemplIc9SI_NoCaseIcE11SI_ConvertAIcEEC1Ebbb @48
    _ZN15CSimpleIniTemplIc9SI_NoCaseIcE11SI_ConvertAIcEED1Ev @49
    _ZN9__gnu_cxx13new_allocatorIN15CSimpleIniTemplIc9SI_NoCaseIcE11SI_ConvertAIcEE5EntryEE7destroyEPS7_ @50
    _ZN9__gnu_cxx13new_allocatorIN15CSimpleIniTemplIc9SI_NoCaseIcE11SI_ConvertAIcEE5EntryEE9constructEPS7_RKS7_ @51
    _ZN9__gnu_cxx13new_allocatorIN15CSimpleIniTemplIc9SI_NoCaseIcE11SI_ConvertAIcEE5EntryEEC2Ev @52
    _ZN9__gnu_cxx13new_allocatorIN15CSimpleIniTemplIc9SI_NoCaseIcE11SI_ConvertAIcEE5EntryEED2Ev @53
    _ZN9__gnu_cxx13new_allocatorISt10_List_nodeIN15CSimpleIniTemplIc9SI_NoCaseIcE11SI_ConvertAIcEE5EntryEEE10deallocateEPS9_j @54
    _ZN9__gnu_cxx13new_allocatorISt10_List_nodeIN15CSimpleIniTemplIc9SI_NoCaseIcE11SI_ConvertAIcEE5EntryEEE8allocateEjPKv @55
    _ZN9__gnu_cxx13new_allocatorISt10_List_nodeIN15CSimpleIniTemplIc9SI_NoCaseIcE11SI_ConvertAIcEE5EntryEEEC2Ev @56
    _ZN9__gnu_cxx13new_allocatorISt10_List_nodeIN15CSimpleIniTemplIc9SI_NoCaseIcE11SI_ConvertAIcEE5EntryEEED2Ev @57
    _ZN9__gnu_cxx13new_allocatorISt13_Rb_tree_nodeISt4pairIKN15CSimpleIniTemplIc9SI_NoCaseIcE11SI_ConvertAIcEE5EntryEPKcEEE10deallocateEPSE_j @58
    _ZN9__gnu_cxx13new_allocatorISt13_Rb_tree_nodeISt4pairIKN15CSimpleIniTemplIc9SI_NoCaseIcE11SI_ConvertAIcEE5EntryEPKcEEE8allocateEjPKv @59
    _ZN9__gnu_cxx13new_allocatorISt13_Rb_tree_nodeISt4pairIKN15CSimpleIniTemplIc9SI_NoCaseIcE11SI_ConvertAIcEE5EntryEPKcEEEC2ERKSF_ @60
    _ZN9__gnu_cxx13new_allocatorISt13_Rb_tree_nodeISt4pairIKN15CSimpleIniTemplIc9SI_NoCaseIcE11SI_ConvertAIcEE5EntryEPKcEEEC2Ev @61
    _ZN9__gnu_cxx13new_allocatorISt13_Rb_tree_nodeISt4pairIKN15CSimpleIniTemplIc9SI_NoCaseIcE11SI_ConvertAIcEE5EntryEPKcEEED2Ev @62
    _ZN9__gnu_cxx13new_allocatorISt13_Rb_tree_nodeISt4pairIKN15CSimpleIniTemplIc9SI_NoCaseIcE11SI_ConvertAIcEE5EntryESt8multimapIS9_PKcNS9_8KeyOrderESaIS2_ISA_SD_EEEEEE10deallocateEPSJ_j @63
    _ZN9__gnu_cxx13new_allocatorISt13_Rb_tree_nodeISt4pairIKN15CSimpleIniTemplIc9SI_NoCaseIcE11SI_ConvertAIcEE5EntryESt8multimapIS9_PKcNS9_8KeyOrderESaIS2_ISA_SD_EEEEEE8allocateEjPKv @64
    _ZN9__gnu_cxx13new_allocatorISt13_Rb_tree_nodeISt4pairIKN15CSimpleIniTemplIc9SI_NoCaseIcE11SI_ConvertAIcEE5EntryESt8multimapIS9_PKcNS9_8KeyOrderESaIS2_ISA_SD_EEEEEEC2Ev @65
    _ZN9__gnu_cxx13new_allocatorISt13_Rb_tree_nodeISt4pairIKN15CSimpleIniTemplIc9SI_NoCaseIcE11SI_ConvertAIcEE5EntryESt8multimapIS9_PKcNS9_8KeyOrderESaIS2_ISA_SD_EEEEEED2Ev @66
    _ZN9__gnu_cxx13new_allocatorISt4pairIKN15CSimpleIniTemplIc9SI_NoCaseIcE11SI_ConvertAIcEE5EntryEPKcEE7destroyEPSC_ @67
    _ZN9__gnu_cxx13new_allocatorISt4pairIKN15CSimpleIniTemplIc9SI_NoCaseIcE11SI_ConvertAIcEE5EntryEPKcEE9constructEPSC_RKSC_ @68
    _ZN9__gnu_cxx13new_allocatorISt4pairIKN15CSimpleIniTemplIc9SI_NoCaseIcE11SI_ConvertAIcEE5EntryEPKcEEC2Ev @69
    _ZN9__gnu_cxx13new_allocatorISt4pairIKN15CSimpleIniTemplIc9SI_NoCaseIcE11SI_ConvertAIcEE5EntryEPKcEED2Ev @70
    _ZN9__gnu_cxx13new_allocatorISt4pairIKN15CSimpleIniTemplIc9SI_NoCaseIcE11SI_ConvertAIcEE5EntryESt8multimapIS8_PKcNS8_8KeyOrderESaIS1_IS9_SC_EEEEE7destroyEPSH_ @71
    _ZN9__gnu_cxx13new_allocatorISt4pairIKN15CSimpleIniTemplIc9SI_NoCaseIcE11SI_ConvertAIcEE5EntryESt8multimapIS8_PKcNS8_8KeyOrderESaIS1_IS9_SC_EEEEE9constructEPSH_RKSH_ @72
    _ZN9__gnu_cxx13new_allocatorISt4pairIKN15CSimpleIniTemplIc9SI_NoCaseIcE11SI_ConvertAIcEE5EntryESt8multimapIS8_PKcNS8_8KeyOrderESaIS1_IS9_SC_EEEEEC2Ev @73
    _ZN9__gnu_cxx13new_allocatorISt4pairIKN15CSimpleIniTemplIc9SI_NoCaseIcE11SI_ConvertAIcEE5EntryESt8multimapIS8_PKcNS8_8KeyOrderESaIS1_IS9_SC_EEEEED2Ev @74
    _ZNK15CSimpleIniTemplIc9SI_NoCaseIcE11SI_ConvertAIcEE11SkipNewLineERPc @75
    _ZNK15CSimpleIniTemplIc9SI_NoCaseIcE11SI_ConvertAIcEE13IsNewLineCharEc @76
    _ZNK15CSimpleIniTemplIc9SI_NoCaseIcE11SI_ConvertAIcEE14IsMultiLineTagEPKc @77
    _ZNK15CSimpleIniTemplIc9SI_NoCaseIcE11SI_ConvertAIcEE17LoadMultiLineTextERPcRPKcS8_b @78
    _ZNK15CSimpleIniTemplIc9SI_NoCaseIcE11SI_ConvertAIcEE5Entry8KeyOrderclERKS5_S8_ @79
    _ZNK15CSimpleIniTemplIc9SI_NoCaseIcE11SI_ConvertAIcEE6IsLessEPKcS6_ @80
    _ZNK15CSimpleIniTemplIc9SI_NoCaseIcE11SI_ConvertAIcEE7IsSpaceEc @81
    _ZNK15CSimpleIniTemplIc9SI_NoCaseIcE11SI_ConvertAIcEE8GetValueEPKcS6_S6_Pb @82
    _ZNK15CSimpleIniTemplIc9SI_NoCaseIcE11SI_ConvertAIcEE9FindEntryERPcRPKcS9_S9_S9_ @83
    _ZNK15CSimpleIniTemplIc9SI_NoCaseIcE11SI_ConvertAIcEE9IsCommentEc @84
    _ZNK9SI_NoCaseIcEclEPKcS2_ @85
    _ZNK9__gnu_cxx13new_allocatorISt10_List_nodeIN15CSimpleIniTemplIc9SI_NoCaseIcE11SI_ConvertAIcEE5EntryEEE8max_sizeEv @86
    _ZNK9__gnu_cxx13new_allocatorISt13_Rb_tree_nodeISt4pairIKN15CSimpleIniTemplIc9SI_NoCaseIcE11SI_ConvertAIcEE5EntryEPKcEEE8max_sizeEv @87
    _ZNK9__gnu_cxx13new_allocatorISt13_Rb_tree_nodeISt4pairIKN15CSimpleIniTemplIc9SI_NoCaseIcE11SI_ConvertAIcEE5EntryESt8multimapIS9_PKcNS9_8KeyOrderESaIS2_ISA_SD_EEEEEE8max_sizeEv @88
    _ZNKSt10_List_baseIN15CSimpleIniTemplIc9SI_NoCaseIcE11SI_ConvertAIcEE5EntryESaIS6_EE19_M_get_Tp_allocatorEv @89
    _ZNKSt10_List_baseIN15CSimpleIniTemplIc9SI_NoCaseIcE11SI_ConvertAIcEE5EntryESaIS6_EE21_M_get_Node_allocatorEv @90
    _ZNKSt10_Select1stISt4pairIKN15CSimpleIniTemplIc9SI_NoCaseIcE11SI_ConvertAIcEE5EntryEPKcEEclERKSB_ @91
    _ZNKSt10_Select1stISt4pairIKN15CSimpleIniTemplIc9SI_NoCaseIcE11SI_ConvertAIcEE5EntryESt8multimapIS7_PKcNS7_8KeyOrderESaIS0_IS8_SB_EEEEEclERKSG_ @92
    _ZNKSt14_List_iteratorIN15CSimpleIniTemplIc9SI_NoCaseIcE11SI_ConvertAIcEE5EntryEEneERKS7_ @93
    _ZNKSt14_List_iteratorIN15CSimpleIniTemplIc9SI_NoCaseIcE11SI_ConvertAIcEE5EntryEEptEv @94
    _ZNKSt17_Rb_tree_iteratorISt4pairIKN15CSimpleIniTemplIc9SI_NoCaseIcE11SI_ConvertAIcEE5EntryEPKcEEeqERKSC_ @95
    _ZNKSt17_Rb_tree_iteratorISt4pairIKN15CSimpleIniTemplIc9SI_NoCaseIcE11SI_ConvertAIcEE5EntryEPKcEEneERKSC_ @96
    _ZNKSt17_Rb_tree_iteratorISt4pairIKN15CSimpleIniTemplIc9SI_NoCaseIcE11SI_ConvertAIcEE5EntryEPKcEEptEv @97
    _ZNKSt17_Rb_tree_iteratorISt4pairIKN15CSimpleIniTemplIc9SI_NoCaseIcE11SI_ConvertAIcEE5EntryESt8multimapIS7_PKcNS7_8KeyOrderESaIS0_IS8_SB_EEEEEeqERKSH_ @98
    _ZNKSt17_Rb_tree_iteratorISt4pairIKN15CSimpleIniTemplIc9SI_NoCaseIcE11SI_ConvertAIcEE5EntryESt8multimapIS7_PKcNS7_8KeyOrderESaIS0_IS8_SB_EEEEEneERKSH_ @99
    _ZNKSt17_Rb_tree_iteratorISt4pairIKN15CSimpleIniTemplIc9SI_NoCaseIcE11SI_ConvertAIcEE5EntryESt8multimapIS7_PKcNS7_8KeyOrderESaIS0_IS8_SB_EEEEEptEv @100
    _ZNKSt23_Rb_tree_const_iteratorISt4pairIKN15CSimpleIniTemplIc9SI_NoCaseIcE11SI_ConvertAIcEE5EntryEPKcEEeqERKSC_ @101
    _ZNKSt23_Rb_tree_const_iteratorISt4pairIKN15CSimpleIniTemplIc9SI_NoCaseIcE11SI_ConvertAIcEE5EntryEPKcEEneERKSC_ @102
    _ZNKSt23_Rb_tree_const_iteratorISt4pairIKN15CSimpleIniTemplIc9SI_NoCaseIcE11SI_ConvertAIcEE5EntryEPKcEEptEv @103
    _ZNKSt23_Rb_tree_const_iteratorISt4pairIKN15CSimpleIniTemplIc9SI_NoCaseIcE11SI_ConvertAIcEE5EntryESt8multimapIS7_PKcNS7_8KeyOrderESaIS0_IS8_SB_EEEEEeqERKSH_ @104
    _ZNKSt23_Rb_tree_const_iteratorISt4pairIKN15CSimpleIniTemplIc9SI_NoCaseIcE11SI_ConvertAIcEE5EntryESt8multimapIS7_PKcNS7_8KeyOrderESaIS0_IS8_SB_EEEEEptEv @105
    _ZNKSt3mapIN15CSimpleIniTemplIc9SI_NoCaseIcE11SI_ConvertAIcEE5EntryESt8multimapIS6_PKcNS6_8KeyOrderESaISt4pairIKS6_S9_EEESA_SaISB_ISC_SF_EEE3endEv @106
    _ZNKSt3mapIN15CSimpleIniTemplIc9SI_NoCaseIcE11SI_ConvertAIcEE5EntryESt8multimapIS6_PKcNS6_8KeyOrderESaISt4pairIKS6_S9_EEESA_SaISB_ISC_SF_EEE4findERSC_ @107
    _ZNKSt3mapIN15CSimpleIniTemplIc9SI_NoCaseIcE11SI_ConvertAIcEE5EntryESt8multimapIS6_PKcNS6_8KeyOrderESaISt4pairIKS6_S9_EEESA_SaISB_ISC_SF_EEE5emptyEv @108
    _ZNKSt4listIN15CSimpleIniTemplIc9SI_NoCaseIcE11SI_ConvertAIcEE5EntryESaIS6_EE5emptyEv @109
    _ZNKSt8_Rb_treeIN15CSimpleIniTemplIc9SI_NoCaseIcE11SI_ConvertAIcEE5EntryESt4pairIKS6_PKcESt10_Select1stISB_ENS6_8KeyOrderESaISB_EE13get_allocatorEv @110
    _ZNKSt8_Rb_treeIN15CSimpleIniTemplIc9SI_NoCaseIcE11SI_ConvertAIcEE5EntryESt4pairIKS6_PKcESt10_Select1stISB_ENS6_8KeyOrderESaISB_EE14_M_lower_boundEPKSt13_Rb_tree_nodeISB_ESK_RS8_ @111
    _ZNKSt8_Rb_treeIN15CSimpleIniTemplIc9SI_NoCaseIcE11SI_ConvertAIcEE5EntryESt4pairIKS6_PKcESt10_Select1stISB_ENS6_8KeyOrderESaISB_EE21_M_get_Node_allocatorEv @112
    _ZNKSt8_Rb_treeIN15CSimpleIniTemplIc9SI_NoCaseIcE11SI_ConvertAIcEE5EntryESt4pairIKS6_PKcESt10_Select1stISB_ENS6_8KeyOrderESaISB_EE3endEv @113
    _ZNKSt8_Rb_treeIN15CSimpleIniTemplIc9SI_NoCaseIcE11SI_ConvertAIcEE5EntryESt4pairIKS6_PKcESt10_Select1stISB_ENS6_8KeyOrderESaISB_EE4findERS8_ @114
    _ZNKSt8_Rb_treeIN15CSimpleIniTemplIc9SI_NoCaseIcE11SI_ConvertAIcEE5EntryESt4pairIKS6_PKcESt10_Select1stISB_ENS6_8KeyOrderESaISB_EE5emptyEv @115
    _ZNKSt8_Rb_treeIN15CSimpleIniTemplIc9SI_NoCaseIcE11SI_ConvertAIcEE5EntryESt4pairIKS6_PKcESt10_Select1stISB_ENS6_8KeyOrderESaISB_EE6_M_endEv @116
    _ZNKSt8_Rb_treeIN15CSimpleIniTemplIc9SI_NoCaseIcE11SI_ConvertAIcEE5EntryESt4pairIKS6_PKcESt10_Select1stISB_ENS6_8KeyOrderESaISB_EE7_M_rootEv @117
    _ZNKSt8_Rb_treeIN15CSimpleIniTemplIc9SI_NoCaseIcE11SI_ConvertAIcEE5EntryESt4pairIKS6_PKcESt10_Select1stISB_ENS6_8KeyOrderESaISB_EE8_M_beginEv @118
    _ZNKSt8_Rb_treeIN15CSimpleIniTemplIc9SI_NoCaseIcE11SI_ConvertAIcEE5EntryESt4pairIKS6_St8multimapIS6_PKcNS6_8KeyOrderESaIS7_IS8_SB_EEEESt10_Select1stISG_ESC_SaISG_EE13get_allocatorEv @119
    _ZNKSt8_Rb_treeIN15CSimpleIniTemplIc9SI_NoCaseIcE11SI_ConvertAIcEE5EntryESt4pairIKS6_St8multimapIS6_PKcNS6_8KeyOrderESaIS7_IS8_SB_EEEESt10_Select1stISG_ESC_SaISG_EE14_M_lower_boundEPKSt13_Rb_tree_nodeISG_ESO_RS8_ @120
    _ZNKSt8_Rb_treeIN15CSimpleIniTemplIc9SI_NoCaseIcE11SI_ConvertAIcEE5EntryESt4pairIKS6_St8multimapIS6_PKcNS6_8KeyOrderESaIS7_IS8_SB_EEEESt10_Select1stISG_ESC_SaISG_EE21_M_get_Node_allocatorEv @121
    _ZNKSt8_Rb_treeIN15CSimpleIniTemplIc9SI_NoCaseIcE11SI_ConvertAIcEE5EntryESt4pairIKS6_St8multimapIS6_PKcNS6_8KeyOrderESaIS7_IS8_SB_EEEESt10_Select1stISG_ESC_SaISG_EE3endEv @122
    _ZNKSt8_Rb_treeIN15CSimpleIniTemplIc9SI_NoCaseIcE11SI_ConvertAIcEE5EntryESt4pairIKS6_St8multimapIS6_PKcNS6_8KeyOrderESaIS7_IS8_SB_EEEESt10_Select1stISG_ESC_SaISG_EE4findERS8_ @123
    _ZNKSt8_Rb_treeIN15CSimpleIniTemplIc9SI_NoCaseIcE11SI_ConvertAIcEE5EntryESt4pairIKS6_St8multimapIS6_PKcNS6_8KeyOrderESaIS7_IS8_SB_EEEESt10_Select1stISG_ESC_SaISG_EE5emptyEv @124
    _ZNKSt8_Rb_treeIN15CSimpleIniTemplIc9SI_NoCaseIcE11SI_ConvertAIcEE5EntryESt4pairIKS6_St8multimapIS6_PKcNS6_8KeyOrderESaIS7_IS8_SB_EEEESt10_Select1stISG_ESC_SaISG_EE6_M_endEv @125
    _ZNKSt8_Rb_treeIN15CSimpleIniTemplIc9SI_NoCaseIcE11SI_ConvertAIcEE5EntryESt4pairIKS6_St8multimapIS6_PKcNS6_8KeyOrderESaIS7_IS8_SB_EEEESt10_Select1stISG_ESC_SaISG_EE8_M_beginEv @126
    _ZNKSt8multimapIN15CSimpleIniTemplIc9SI_NoCaseIcE11SI_ConvertAIcEE5EntryEPKcNS6_8KeyOrderESaISt4pairIKS6_S8_EEE3endEv @127
    _ZNKSt8multimapIN15CSimpleIniTemplIc9SI_NoCaseIcE11SI_ConvertAIcEE5EntryEPKcNS6_8KeyOrderESaISt4pairIKS6_S8_EEE4findERSB_ @128
    _ZNKSt8multimapIN15CSimpleIniTemplIc9SI_NoCaseIcE11SI_ConvertAIcEE5EntryEPKcNS6_8KeyOrderESaISt4pairIKS6_S8_EEE5emptyEv @129
    _ZNSaIN15CSimpleIniTemplIc9SI_NoCaseIcE11SI_ConvertAIcEE5EntryEEC1ISt10_List_nodeIS5_EEERKSaIT_E @130
    _ZNSaIN15CSimpleIniTemplIc9SI_NoCaseIcE11SI_ConvertAIcEE5EntryEED1Ev @131
    _ZNSaISt10_List_nodeIN15CSimpleIniTemplIc9SI_NoCaseIcE11SI_ConvertAIcEE5EntryEEEC2Ev @132
    _ZNSaISt10_List_nodeIN15CSimpleIniTemplIc9SI_NoCaseIcE11SI_ConvertAIcEE5EntryEEED2Ev @133
    _ZNSaISt13_Rb_tree_nodeISt4pairIKN15CSimpleIniTemplIc9SI_NoCaseIcE11SI_ConvertAIcEE5EntryEPKcEEEC2ERKSD_ @134
    _ZNSaISt13_Rb_tree_nodeISt4pairIKN15CSimpleIniTemplIc9SI_NoCaseIcE11SI_ConvertAIcEE5EntryEPKcEEEC2Ev @135
    _ZNSaISt13_Rb_tree_nodeISt4pairIKN15CSimpleIniTemplIc9SI_NoCaseIcE11SI_ConvertAIcEE5EntryEPKcEEED2Ev @136
    _ZNSaISt13_Rb_tree_nodeISt4pairIKN15CSimpleIniTemplIc9SI_NoCaseIcE11SI_ConvertAIcEE5EntryESt8multimapIS7_PKcNS7_8KeyOrderESaIS0_IS8_SB_EEEEEEC2Ev @137
    _ZNSaISt13_Rb_tree_nodeISt4pairIKN15CSimpleIniTemplIc9SI_NoCaseIcE11SI_ConvertAIcEE5EntryESt8multimapIS7_PKcNS7_8KeyOrderESaIS0_IS8_SB_EEEEEED2Ev @138
    _ZNSaISt4pairIKN15CSimpleIniTemplIc9SI_NoCaseIcE11SI_ConvertAIcEE5EntryEPKcEEC1ISt13_Rb_tree_nodeISA_EEERKSaIT_E @139
    _ZNSaISt4pairIKN15CSimpleIniTemplIc9SI_NoCaseIcE11SI_ConvertAIcEE5EntryEPKcEED1Ev @140
    _ZNSaISt4pairIKN15CSimpleIniTemplIc9SI_NoCaseIcE11SI_ConvertAIcEE5EntryESt8multimapIS6_PKcNS6_8KeyOrderESaIS_IS7_SA_EEEEEC1ISt13_Rb_tree_nodeISF_EEERKSaIT_E @141
    _ZNSaISt4pairIKN15CSimpleIniTemplIc9SI_NoCaseIcE11SI_ConvertAIcEE5EntryESt8multimapIS6_PKcNS6_8KeyOrderESaIS_IS7_SA_EEEEED1Ev @142
    _ZNSt10_List_baseIN15CSimpleIniTemplIc9SI_NoCaseIcE11SI_ConvertAIcEE5EntryESaIS6_EE10_List_implC1Ev @143
    _ZNSt10_List_baseIN15CSimpleIniTemplIc9SI_NoCaseIcE11SI_ConvertAIcEE5EntryESaIS6_EE10_List_implD1Ev @144
    _ZNSt10_List_baseIN15CSimpleIniTemplIc9SI_NoCaseIcE11SI_ConvertAIcEE5EntryESaIS6_EE11_M_get_nodeEv @145
    _ZNSt10_List_baseIN15CSimpleIniTemplIc9SI_NoCaseIcE11SI_ConvertAIcEE5EntryESaIS6_EE11_M_put_nodeEPSt10_List_nodeIS6_E @146
    _ZNSt10_List_baseIN15CSimpleIniTemplIc9SI_NoCaseIcE11SI_ConvertAIcEE5EntryESaIS6_EE7_M_initEv @147
    _ZNSt10_List_baseIN15CSimpleIniTemplIc9SI_NoCaseIcE11SI_ConvertAIcEE5EntryESaIS6_EE8_M_clearEv @148
    _ZNSt10_List_baseIN15CSimpleIniTemplIc9SI_NoCaseIcE11SI_ConvertAIcEE5EntryESaIS6_EEC2Ev @149
    _ZNSt10_List_baseIN15CSimpleIniTemplIc9SI_NoCaseIcE11SI_ConvertAIcEE5EntryESaIS6_EED2Ev @150
    _ZNSt14_List_iteratorIN15CSimpleIniTemplIc9SI_NoCaseIcE11SI_ConvertAIcEE5EntryEEC1EPSt15_List_node_base @151
    _ZNSt14_List_iteratorIN15CSimpleIniTemplIc9SI_NoCaseIcE11SI_ConvertAIcEE5EntryEEppEv @152
    _ZNSt17_Rb_tree_iteratorISt4pairIKN15CSimpleIniTemplIc9SI_NoCaseIcE11SI_ConvertAIcEE5EntryEPKcEEC1EPSt13_Rb_tree_nodeISB_E @153
    _ZNSt17_Rb_tree_iteratorISt4pairIKN15CSimpleIniTemplIc9SI_NoCaseIcE11SI_ConvertAIcEE5EntryEPKcEEC1Ev @154
    _ZNSt17_Rb_tree_iteratorISt4pairIKN15CSimpleIniTemplIc9SI_NoCaseIcE11SI_ConvertAIcEE5EntryEPKcEEppEi @155
    _ZNSt17_Rb_tree_iteratorISt4pairIKN15CSimpleIniTemplIc9SI_NoCaseIcE11SI_ConvertAIcEE5EntryEPKcEEppEv @156
    _ZNSt17_Rb_tree_iteratorISt4pairIKN15CSimpleIniTemplIc9SI_NoCaseIcE11SI_ConvertAIcEE5EntryESt8multimapIS7_PKcNS7_8KeyOrderESaIS0_IS8_SB_EEEEEC1EPSt13_Rb_tree_nodeISG_E @157
    _ZNSt17_Rb_tree_iteratorISt4pairIKN15CSimpleIniTemplIc9SI_NoCaseIcE11SI_ConvertAIcEE5EntryESt8multimapIS7_PKcNS7_8KeyOrderESaIS0_IS8_SB_EEEEEmmEv @158
    _ZNSt17_Rb_tree_iteratorISt4pairIKN15CSimpleIniTemplIc9SI_NoCaseIcE11SI_ConvertAIcEE5EntryESt8multimapIS7_PKcNS7_8KeyOrderESaIS0_IS8_SB_EEEEEppEi @159
    _ZNSt18_Rb_tree_node_base10_S_maximumEPS_ @160
    _ZNSt18_Rb_tree_node_base10_S_minimumEPS_ @161
    _ZNSt23_Rb_tree_const_iteratorISt4pairIKN15CSimpleIniTemplIc9SI_NoCaseIcE11SI_ConvertAIcEE5EntryEPKcEEC1EPKSt13_Rb_tree_nodeISB_E @162
    _ZNSt23_Rb_tree_const_iteratorISt4pairIKN15CSimpleIniTemplIc9SI_NoCaseIcE11SI_ConvertAIcEE5EntryEPKcEEppEv @163
    _ZNSt23_Rb_tree_const_iteratorISt4pairIKN15CSimpleIniTemplIc9SI_NoCaseIcE11SI_ConvertAIcEE5EntryESt8multimapIS7_PKcNS7_8KeyOrderESaIS0_IS8_SB_EEEEEC1EPKSt13_Rb_tree_nodeISG_E @164
    _ZNSt3mapIN15CSimpleIniTemplIc9SI_NoCaseIcE11SI_ConvertAIcEE5EntryESt8multimapIS6_PKcNS6_8KeyOrderESaISt4pairIKS6_S9_EEESA_SaISB_ISC_SF_EEE3endEv @165
    _ZNSt3mapIN15CSimpleIniTemplIc9SI_NoCaseIcE11SI_ConvertAIcEE5EntryESt8multimapIS6_PKcNS6_8KeyOrderESaISt4pairIKS6_S9_EEESA_SaISB_ISC_SF_EEE4findERSC_ @166
    _ZNSt3mapIN15CSimpleIniTemplIc9SI_NoCaseIcE11SI_ConvertAIcEE5EntryESt8multimapIS6_PKcNS6_8KeyOrderESaISt4pairIKS6_S9_EEESA_SaISB_ISC_SF_EEE5beginEv @167
    _ZNSt3mapIN15CSimpleIniTemplIc9SI_NoCaseIcE11SI_ConvertAIcEE5EntryESt8multimapIS6_PKcNS6_8KeyOrderESaISt4pairIKS6_S9_EEESA_SaISB_ISC_SF_EEE5eraseESt17_Rb_tree_iteratorISG_E @168
    _ZNSt3mapIN15CSimpleIniTemplIc9SI_NoCaseIcE11SI_ConvertAIcEE5EntryESt8multimapIS6_PKcNS6_8KeyOrderESaISt4pairIKS6_S9_EEESA_SaISB_ISC_SF_EEE5eraseESt17_Rb_tree_iteratorISG_ESK_ @169
    _ZNSt3mapIN15CSimpleIniTemplIc9SI_NoCaseIcE11SI_ConvertAIcEE5EntryESt8multimapIS6_PKcNS6_8KeyOrderESaISt4pairIKS6_S9_EEESA_SaISB_ISC_SF_EEE6insertERKSG_ @170
    _ZNSt3mapIN15CSimpleIniTemplIc9SI_NoCaseIcE11SI_ConvertAIcEE5EntryESt8multimapIS6_PKcNS6_8KeyOrderESaISt4pairIKS6_S9_EEESA_SaISB_ISC_SF_EEEC1Ev @171
    _ZNSt3mapIN15CSimpleIniTemplIc9SI_NoCaseIcE11SI_ConvertAIcEE5EntryESt8multimapIS6_PKcNS6_8KeyOrderESaISt4pairIKS6_S9_EEESA_SaISB_ISC_SF_EEED1Ev @172
    _ZNSt4listIN15CSimpleIniTemplIc9SI_NoCaseIcE11SI_ConvertAIcEE5EntryESaIS6_EE14_M_create_nodeERKS6_ @173
    _ZNSt4listIN15CSimpleIniTemplIc9SI_NoCaseIcE11SI_ConvertAIcEE5EntryESaIS6_EE3endEv @174
    _ZNSt4listIN15CSimpleIniTemplIc9SI_NoCaseIcE11SI_ConvertAIcEE5EntryESaIS6_EE5beginEv @175
    _ZNSt4listIN15CSimpleIniTemplIc9SI_NoCaseIcE11SI_ConvertAIcEE5EntryESaIS6_EE5eraseESt14_List_iteratorIS6_E @176
    _ZNSt4listIN15CSimpleIniTemplIc9SI_NoCaseIcE11SI_ConvertAIcEE5EntryESaIS6_EE5eraseESt14_List_iteratorIS6_ESA_ @177
    _ZNSt4listIN15CSimpleIniTemplIc9SI_NoCaseIcE11SI_ConvertAIcEE5EntryESaIS6_EE8_M_eraseESt14_List_iteratorIS6_E @178
    _ZNSt4listIN15CSimpleIniTemplIc9SI_NoCaseIcE11SI_ConvertAIcEE5EntryESaIS6_EE9_M_insertESt14_List_iteratorIS6_ERKS6_ @179
    _ZNSt4listIN15CSimpleIniTemplIc9SI_NoCaseIcE11SI_ConvertAIcEE5EntryESaIS6_EE9push_backERKS6_ @180
    _ZNSt4listIN15CSimpleIniTemplIc9SI_NoCaseIcE11SI_ConvertAIcEE5EntryESaIS6_EEC1Ev @181
    _ZNSt4listIN15CSimpleIniTemplIc9SI_NoCaseIcE11SI_ConvertAIcEE5EntryESaIS6_EED1Ev @182
    _ZNSt4pairIKN15CSimpleIniTemplIc9SI_NoCaseIcE11SI_ConvertAIcEE5EntryEPKcEC1ERKSA_ @183
    _ZNSt4pairIKN15CSimpleIniTemplIc9SI_NoCaseIcE11SI_ConvertAIcEE5EntryEPKcEC1ERS7_RKS9_ @184
    _ZNSt4pairIKN15CSimpleIniTemplIc9SI_NoCaseIcE11SI_ConvertAIcEE5EntryEPKcED1Ev @185
    _ZNSt4pairIKN15CSimpleIniTemplIc9SI_NoCaseIcE11SI_ConvertAIcEE5EntryESt8multimapIS6_PKcNS6_8KeyOrderESaIS_IS7_SA_EEEEC1ERKSF_ @186
    _ZNSt4pairIKN15CSimpleIniTemplIc9SI_NoCaseIcE11SI_ConvertAIcEE5EntryESt8multimapIS6_PKcNS6_8KeyOrderESaIS_IS7_SA_EEEEC1ERS7_RKSE_ @187
    _ZNSt4pairIKN15CSimpleIniTemplIc9SI_NoCaseIcE11SI_ConvertAIcEE5EntryESt8multimapIS6_PKcNS6_8KeyOrderESaIS_IS7_SA_EEEED1Ev @188
    _ZNSt4pairISt17_Rb_tree_iteratorIS_IKN15CSimpleIniTemplIc9SI_NoCaseIcE11SI_ConvertAIcEE5EntryESt8multimapIS7_PKcNS7_8KeyOrderESaIS_IS8_SB_EEEEEbEC1ERKSH_RKb @189
    _ZNSt8_Rb_treeIN15CSimpleIniTemplIc9SI_NoCaseIcE11SI_ConvertAIcEE5EntryESt4pairIKS6_PKcESt10_Select1stISB_ENS6_8KeyOrderESaISB_EE10_M_insert_EPKSt18_Rb_tree_node_baseSJ_RKSB_ @190
    _ZNSt8_Rb_treeIN15CSimpleIniTemplIc9SI_NoCaseIcE11SI_ConvertAIcEE5EntryESt4pairIKS6_PKcESt10_Select1stISB_ENS6_8KeyOrderESaISB_EE10_S_maximumEPSt18_Rb_tree_node_base @191
    _ZNSt8_Rb_treeIN15CSimpleIniTemplIc9SI_NoCaseIcE11SI_ConvertAIcEE5EntryESt4pairIKS6_PKcESt10_Select1stISB_ENS6_8KeyOrderESaISB_EE10_S_minimumEPSt18_Rb_tree_node_base @192
    _ZNSt8_Rb_treeIN15CSimpleIniTemplIc9SI_NoCaseIcE11SI_ConvertAIcEE5EntryESt4pairIKS6_PKcESt10_Select1stISB_ENS6_8KeyOrderESaISB_EE11_M_get_nodeEv @193
    _ZNSt8_Rb_treeIN15CSimpleIniTemplIc9SI_NoCaseIcE11SI_ConvertAIcEE5EntryESt4pairIKS6_PKcESt10_Select1stISB_ENS6_8KeyOrderESaISB_EE11_M_leftmostEv @194
    _ZNSt8_Rb_treeIN15CSimpleIniTemplIc9SI_NoCaseIcE11SI_ConvertAIcEE5EntryESt4pairIKS6_PKcESt10_Select1stISB_ENS6_8KeyOrderESaISB_EE11_M_put_nodeEPSt13_Rb_tree_nodeISB_E @195
    _ZNSt8_Rb_treeIN15CSimpleIniTemplIc9SI_NoCaseIcE11SI_ConvertAIcEE5EntryESt4pairIKS6_PKcESt10_Select1stISB_ENS6_8KeyOrderESaISB_EE12_M_rightmostEv @196
    _ZNSt8_Rb_treeIN15CSimpleIniTemplIc9SI_NoCaseIcE11SI_ConvertAIcEE5EntryESt4pairIKS6_PKcESt10_Select1stISB_ENS6_8KeyOrderESaISB_EE13_M_clone_nodeEPKSt13_Rb_tree_nodeISB_E @197
    _ZNSt8_Rb_treeIN15CSimpleIniTemplIc9SI_NoCaseIcE11SI_ConvertAIcEE5EntryESt4pairIKS6_PKcESt10_Select1stISB_ENS6_8KeyOrderESaISB_EE13_Rb_tree_implISE_Lb0EE13_M_initializeEv @198
    _ZNSt8_Rb_treeIN15CSimpleIniTemplIc9SI_NoCaseIcE11SI_ConvertAIcEE5EntryESt4pairIKS6_PKcESt10_Select1stISB_ENS6_8KeyOrderESaISB_EE13_Rb_tree_implISE_Lb0EEC1ERKSE_RKSaISt13_Rb_tree_nodeISB_EE @199
    _ZNSt8_Rb_treeIN15CSimpleIniTemplIc9SI_NoCaseIcE11SI_ConvertAIcEE5EntryESt4pairIKS6_PKcESt10_Select1stISB_ENS6_8KeyOrderESaISB_EE13_Rb_tree_implISE_Lb0EEC1Ev @200
    _ZNSt8_Rb_treeIN15CSimpleIniTemplIc9SI_NoCaseIcE11SI_ConvertAIcEE5EntryESt4pairIKS6_PKcESt10_Select1stISB_ENS6_8KeyOrderESaISB_EE13_Rb_tree_implISE_Lb0EED1Ev @201
    _ZNSt8_Rb_treeIN15CSimpleIniTemplIc9SI_NoCaseIcE11SI_ConvertAIcEE5EntryESt4pairIKS6_PKcESt10_Select1stISB_ENS6_8KeyOrderESaISB_EE14_M_create_nodeERKSB_ @202
    _ZNSt8_Rb_treeIN15CSimpleIniTemplIc9SI_NoCaseIcE11SI_ConvertAIcEE5EntryESt4pairIKS6_PKcESt10_Select1stISB_ENS6_8KeyOrderESaISB_EE14_M_lower_boundEPSt13_Rb_tree_nodeISB_ESJ_RS8_ @203
    _ZNSt8_Rb_treeIN15CSimpleIniTemplIc9SI_NoCaseIcE11SI_ConvertAIcEE5EntryESt4pairIKS6_PKcESt10_Select1stISB_ENS6_8KeyOrderESaISB_EE15_M_destroy_nodeEPSt13_Rb_tree_nodeISB_E @204
    _ZNSt8_Rb_treeIN15CSimpleIniTemplIc9SI_NoCaseIcE11SI_ConvertAIcEE5EntryESt4pairIKS6_PKcESt10_Select1stISB_ENS6_8KeyOrderESaISB_EE15_M_insert_equalERKSB_ @205
    _ZNSt8_Rb_treeIN15CSimpleIniTemplIc9SI_NoCaseIcE11SI_ConvertAIcEE5EntryESt4pairIKS6_PKcESt10_Select1stISB_ENS6_8KeyOrderESaISB_EE3endEv @206
    _ZNSt8_Rb_treeIN15CSimpleIniTemplIc9SI_NoCaseIcE11SI_ConvertAIcEE5EntryESt4pairIKS6_PKcESt10_Select1stISB_ENS6_8KeyOrderESaISB_EE4findERS8_ @207
    _ZNSt8_Rb_treeIN15CSimpleIniTemplIc9SI_NoCaseIcE11SI_ConvertAIcEE5EntryESt4pairIKS6_PKcESt10_Select1stISB_ENS6_8KeyOrderESaISB_EE5beginEv @208
    _ZNSt8_Rb_treeIN15CSimpleIniTemplIc9SI_NoCaseIcE11SI_ConvertAIcEE5EntryESt4pairIKS6_PKcESt10_Select1stISB_ENS6_8KeyOrderESaISB_EE5eraseESt17_Rb_tree_iteratorISB_E @209
    _ZNSt8_Rb_treeIN15CSimpleIniTemplIc9SI_NoCaseIcE11SI_ConvertAIcEE5EntryESt4pairIKS6_PKcESt10_Select1stISB_ENS6_8KeyOrderESaISB_EE6_M_endEv @210
    _ZNSt8_Rb_treeIN15CSimpleIniTemplIc9SI_NoCaseIcE11SI_ConvertAIcEE5EntryESt4pairIKS6_PKcESt10_Select1stISB_ENS6_8KeyOrderESaISB_EE6_S_keyEPKSt13_Rb_tree_nodeISB_E @211
    _ZNSt8_Rb_treeIN15CSimpleIniTemplIc9SI_NoCaseIcE11SI_ConvertAIcEE5EntryESt4pairIKS6_PKcESt10_Select1stISB_ENS6_8KeyOrderESaISB_EE6_S_keyEPKSt18_Rb_tree_node_base @212
    _ZNSt8_Rb_treeIN15CSimpleIniTemplIc9SI_NoCaseIcE11SI_ConvertAIcEE5EntryESt4pairIKS6_PKcESt10_Select1stISB_ENS6_8KeyOrderESaISB_EE7_M_copyEPKSt13_Rb_tree_nodeISB_EPSI_ @213
    _ZNSt8_Rb_treeIN15CSimpleIniTemplIc9SI_NoCaseIcE11SI_ConvertAIcEE5EntryESt4pairIKS6_PKcESt10_Select1stISB_ENS6_8KeyOrderESaISB_EE7_M_rootEv @214
    _ZNSt8_Rb_treeIN15CSimpleIniTemplIc9SI_NoCaseIcE11SI_ConvertAIcEE5EntryESt4pairIKS6_PKcESt10_Select1stISB_ENS6_8KeyOrderESaISB_EE7_S_leftEPKSt18_Rb_tree_node_base @215
    _ZNSt8_Rb_treeIN15CSimpleIniTemplIc9SI_NoCaseIcE11SI_ConvertAIcEE5EntryESt4pairIKS6_PKcESt10_Select1stISB_ENS6_8KeyOrderESaISB_EE7_S_leftEPSt18_Rb_tree_node_base @216
    _ZNSt8_Rb_treeIN15CSimpleIniTemplIc9SI_NoCaseIcE11SI_ConvertAIcEE5EntryESt4pairIKS6_PKcESt10_Select1stISB_ENS6_8KeyOrderESaISB_EE8_M_beginEv @217
    _ZNSt8_Rb_treeIN15CSimpleIniTemplIc9SI_NoCaseIcE11SI_ConvertAIcEE5EntryESt4pairIKS6_PKcESt10_Select1stISB_ENS6_8KeyOrderESaISB_EE8_M_eraseEPSt13_Rb_tree_nodeISB_E @218
    _ZNSt8_Rb_treeIN15CSimpleIniTemplIc9SI_NoCaseIcE11SI_ConvertAIcEE5EntryESt4pairIKS6_PKcESt10_Select1stISB_ENS6_8KeyOrderESaISB_EE8_S_rightEPKSt18_Rb_tree_node_base @219
    _ZNSt8_Rb_treeIN15CSimpleIniTemplIc9SI_NoCaseIcE11SI_ConvertAIcEE5EntryESt4pairIKS6_PKcESt10_Select1stISB_ENS6_8KeyOrderESaISB_EE8_S_rightEPSt18_Rb_tree_node_base @220
    _ZNSt8_Rb_treeIN15CSimpleIniTemplIc9SI_NoCaseIcE11SI_ConvertAIcEE5EntryESt4pairIKS6_PKcESt10_Select1stISB_ENS6_8KeyOrderESaISB_EE8_S_valueEPKSt13_Rb_tree_nodeISB_E @221
    _ZNSt8_Rb_treeIN15CSimpleIniTemplIc9SI_NoCaseIcE11SI_ConvertAIcEE5EntryESt4pairIKS6_PKcESt10_Select1stISB_ENS6_8KeyOrderESaISB_EE8_S_valueEPKSt18_Rb_tree_node_base @222
    _ZNSt8_Rb_treeIN15CSimpleIniTemplIc9SI_NoCaseIcE11SI_ConvertAIcEE5EntryESt4pairIKS6_PKcESt10_Select1stISB_ENS6_8KeyOrderESaISB_EEC1ERKSG_ @223
    _ZNSt8_Rb_treeIN15CSimpleIniTemplIc9SI_NoCaseIcE11SI_ConvertAIcEE5EntryESt4pairIKS6_PKcESt10_Select1stISB_ENS6_8KeyOrderESaISB_EEC1Ev @224
    _ZNSt8_Rb_treeIN15CSimpleIniTemplIc9SI_NoCaseIcE11SI_ConvertAIcEE5EntryESt4pairIKS6_PKcESt10_Select1stISB_ENS6_8KeyOrderESaISB_EED1Ev @225
    _ZNSt8_Rb_treeIN15CSimpleIniTemplIc9SI_NoCaseIcE11SI_ConvertAIcEE5EntryESt4pairIKS6_St8multimapIS6_PKcNS6_8KeyOrderESaIS7_IS8_SB_EEEESt10_Select1stISG_ESC_SaISG_EE10_M_insert_EPKSt18_Rb_tree_node_baseSN_RKSG_ @226
    _ZNSt8_Rb_treeIN15CSimpleIniTemplIc9SI_NoCaseIcE11SI_ConvertAIcEE5EntryESt4pairIKS6_St8multimapIS6_PKcNS6_8KeyOrderESaIS7_IS8_SB_EEEESt10_Select1stISG_ESC_SaISG_EE11_M_get_nodeEv @227
    _ZNSt8_Rb_treeIN15CSimpleIniTemplIc9SI_NoCaseIcE11SI_ConvertAIcEE5EntryESt4pairIKS6_St8multimapIS6_PKcNS6_8KeyOrderESaIS7_IS8_SB_EEEESt10_Select1stISG_ESC_SaISG_EE11_M_leftmostEv @228
    _ZNSt8_Rb_treeIN15CSimpleIniTemplIc9SI_NoCaseIcE11SI_ConvertAIcEE5EntryESt4pairIKS6_St8multimapIS6_PKcNS6_8KeyOrderESaIS7_IS8_SB_EEEESt10_Select1stISG_ESC_SaISG_EE11_M_put_nodeEPSt13_Rb_tree_nodeISG_E @229
    _ZNSt8_Rb_treeIN15CSimpleIniTemplIc9SI_NoCaseIcE11SI_ConvertAIcEE5EntryESt4pairIKS6_St8multimapIS6_PKcNS6_8KeyOrderESaIS7_IS8_SB_EEEESt10_Select1stISG_ESC_SaISG_EE12_M_rightmostEv @230
    _ZNSt8_Rb_treeIN15CSimpleIniTemplIc9SI_NoCaseIcE11SI_ConvertAIcEE5EntryESt4pairIKS6_St8multimapIS6_PKcNS6_8KeyOrderESaIS7_IS8_SB_EEEESt10_Select1stISG_ESC_SaISG_EE13_Rb_tree_implISC_Lb0EE13_M_initializeEv @231
    _ZNSt8_Rb_treeIN15CSimpleIniTemplIc9SI_NoCaseIcE11SI_ConvertAIcEE5EntryESt4pairIKS6_St8multimapIS6_PKcNS6_8KeyOrderESaIS7_IS8_SB_EEEESt10_Select1stISG_ESC_SaISG_EE13_Rb_tree_implISC_Lb0EEC1Ev @232
    _ZNSt8_Rb_treeIN15CSimpleIniTemplIc9SI_NoCaseIcE11SI_ConvertAIcEE5EntryESt4pairIKS6_St8multimapIS6_PKcNS6_8KeyOrderESaIS7_IS8_SB_EEEESt10_Select1stISG_ESC_SaISG_EE13_Rb_tree_implISC_Lb0EED1Ev @233
    _ZNSt8_Rb_treeIN15CSimpleIniTemplIc9SI_NoCaseIcE11SI_ConvertAIcEE5EntryESt4pairIKS6_St8multimapIS6_PKcNS6_8KeyOrderESaIS7_IS8_SB_EEEESt10_Select1stISG_ESC_SaISG_EE14_M_create_nodeERKSG_ @234
    _ZNSt8_Rb_treeIN15CSimpleIniTemplIc9SI_NoCaseIcE11SI_ConvertAIcEE5EntryESt4pairIKS6_St8multimapIS6_PKcNS6_8KeyOrderESaIS7_IS8_SB_EEEESt10_Select1stISG_ESC_SaISG_EE14_M_lower_boundEPSt13_Rb_tree_nodeISG_ESN_RS8_ @235
    _ZNSt8_Rb_treeIN15CSimpleIniTemplIc9SI_NoCaseIcE11SI_ConvertAIcEE5EntryESt4pairIKS6_St8multimapIS6_PKcNS6_8KeyOrderESaIS7_IS8_SB_EEEESt10_Select1stISG_ESC_SaISG_EE15_M_destroy_nodeEPSt13_Rb_tree_nodeISG_E @236
    _ZNSt8_Rb_treeIN15CSimpleIniTemplIc9SI_NoCaseIcE11SI_ConvertAIcEE5EntryESt4pairIKS6_St8multimapIS6_PKcNS6_8KeyOrderESaIS7_IS8_SB_EEEESt10_Select1stISG_ESC_SaISG_EE16_M_insert_uniqueERKSG_ @237
    _ZNSt8_Rb_treeIN15CSimpleIniTemplIc9SI_NoCaseIcE11SI_ConvertAIcEE5EntryESt4pairIKS6_St8multimapIS6_PKcNS6_8KeyOrderESaIS7_IS8_SB_EEEESt10_Select1stISG_ESC_SaISG_EE3endEv @238
    _ZNSt8_Rb_treeIN15CSimpleIniTemplIc9SI_NoCaseIcE11SI_ConvertAIcEE5EntryESt4pairIKS6_St8multimapIS6_PKcNS6_8KeyOrderESaIS7_IS8_SB_EEEESt10_Select1stISG_ESC_SaISG_EE4findERS8_ @239
    _ZNSt8_Rb_treeIN15CSimpleIniTemplIc9SI_NoCaseIcE11SI_ConvertAIcEE5EntryESt4pairIKS6_St8multimapIS6_PKcNS6_8KeyOrderESaIS7_IS8_SB_EEEESt10_Select1stISG_ESC_SaISG_EE5beginEv @240
    _ZNSt8_Rb_treeIN15CSimpleIniTemplIc9SI_NoCaseIcE11SI_ConvertAIcEE5EntryESt4pairIKS6_St8multimapIS6_PKcNS6_8KeyOrderESaIS7_IS8_SB_EEEESt10_Select1stISG_ESC_SaISG_EE5clearEv @241
    _ZNSt8_Rb_treeIN15CSimpleIniTemplIc9SI_NoCaseIcE11SI_ConvertAIcEE5EntryESt4pairIKS6_St8multimapIS6_PKcNS6_8KeyOrderESaIS7_IS8_SB_EEEESt10_Select1stISG_ESC_SaISG_EE5eraseESt17_Rb_tree_iteratorISG_E @242
    _ZNSt8_Rb_treeIN15CSimpleIniTemplIc9SI_NoCaseIcE11SI_ConvertAIcEE5EntryESt4pairIKS6_St8multimapIS6_PKcNS6_8KeyOrderESaIS7_IS8_SB_EEEESt10_Select1stISG_ESC_SaISG_EE5eraseESt17_Rb_tree_iteratorISG_ESM_ @243
    _ZNSt8_Rb_treeIN15CSimpleIniTemplIc9SI_NoCaseIcE11SI_ConvertAIcEE5EntryESt4pairIKS6_St8multimapIS6_PKcNS6_8KeyOrderESaIS7_IS8_SB_EEEESt10_Select1stISG_ESC_SaISG_EE6_M_endEv @244
    _ZNSt8_Rb_treeIN15CSimpleIniTemplIc9SI_NoCaseIcE11SI_ConvertAIcEE5EntryESt4pairIKS6_St8multimapIS6_PKcNS6_8KeyOrderESaIS7_IS8_SB_EEEESt10_Select1stISG_ESC_SaISG_EE6_S_keyEPKSt13_Rb_tree_nodeISG_E @245
    _ZNSt8_Rb_treeIN15CSimpleIniTemplIc9SI_NoCaseIcE11SI_ConvertAIcEE5EntryESt4pairIKS6_St8multimapIS6_PKcNS6_8KeyOrderESaIS7_IS8_SB_EEEESt10_Select1stISG_ESC_SaISG_EE6_S_keyEPKSt18_Rb_tree_node_base @246
    _ZNSt8_Rb_treeIN15CSimpleIniTemplIc9SI_NoCaseIcE11SI_ConvertAIcEE5EntryESt4pairIKS6_St8multimapIS6_PKcNS6_8KeyOrderESaIS7_IS8_SB_EEEESt10_Select1stISG_ESC_SaISG_EE7_M_rootEv @247
    _ZNSt8_Rb_treeIN15CSimpleIniTemplIc9SI_NoCaseIcE11SI_ConvertAIcEE5EntryESt4pairIKS6_St8multimapIS6_PKcNS6_8KeyOrderESaIS7_IS8_SB_EEEESt10_Select1stISG_ESC_SaISG_EE7_S_leftEPKSt18_Rb_tree_node_base @248
    _ZNSt8_Rb_treeIN15CSimpleIniTemplIc9SI_NoCaseIcE11SI_ConvertAIcEE5EntryESt4pairIKS6_St8multimapIS6_PKcNS6_8KeyOrderESaIS7_IS8_SB_EEEESt10_Select1stISG_ESC_SaISG_EE7_S_leftEPSt18_Rb_tree_node_base @249
    _ZNSt8_Rb_treeIN15CSimpleIniTemplIc9SI_NoCaseIcE11SI_ConvertAIcEE5EntryESt4pairIKS6_St8multimapIS6_PKcNS6_8KeyOrderESaIS7_IS8_SB_EEEESt10_Select1stISG_ESC_SaISG_EE8_M_beginEv @250
    _ZNSt8_Rb_treeIN15CSimpleIniTemplIc9SI_NoCaseIcE11SI_ConvertAIcEE5EntryESt4pairIKS6_St8multimapIS6_PKcNS6_8KeyOrderESaIS7_IS8_SB_EEEESt10_Select1stISG_ESC_SaISG_EE8_M_eraseEPSt13_Rb_tree_nodeISG_E @251
    _ZNSt8_Rb_treeIN15CSimpleIniTemplIc9SI_NoCaseIcE11SI_ConvertAIcEE5EntryESt4pairIKS6_St8multimapIS6_PKcNS6_8KeyOrderESaIS7_IS8_SB_EEEESt10_Select1stISG_ESC_SaISG_EE8_S_rightEPKSt18_Rb_tree_node_base @252
    _ZNSt8_Rb_treeIN15CSimpleIniTemplIc9SI_NoCaseIcE11SI_ConvertAIcEE5EntryESt4pairIKS6_St8multimapIS6_PKcNS6_8KeyOrderESaIS7_IS8_SB_EEEESt10_Select1stISG_ESC_SaISG_EE8_S_rightEPSt18_Rb_tree_node_base @253
    _ZNSt8_Rb_treeIN15CSimpleIniTemplIc9SI_NoCaseIcE11SI_ConvertAIcEE5EntryESt4pairIKS6_St8multimapIS6_PKcNS6_8KeyOrderESaIS7_IS8_SB_EEEESt10_Select1stISG_ESC_SaISG_EE8_S_valueEPKSt13_Rb_tree_nodeISG_E @254
    _ZNSt8_Rb_treeIN15CSimpleIniTemplIc9SI_NoCaseIcE11SI_ConvertAIcEE5EntryESt4pairIKS6_St8multimapIS6_PKcNS6_8KeyOrderESaIS7_IS8_SB_EEEESt10_Select1stISG_ESC_SaISG_EE8_S_valueEPKSt18_Rb_tree_node_base @255
    _ZNSt8_Rb_treeIN15CSimpleIniTemplIc9SI_NoCaseIcE11SI_ConvertAIcEE5EntryESt4pairIKS6_St8multimapIS6_PKcNS6_8KeyOrderESaIS7_IS8_SB_EEEESt10_Select1stISG_ESC_SaISG_EEC1Ev @256
    _ZNSt8_Rb_treeIN15CSimpleIniTemplIc9SI_NoCaseIcE11SI_ConvertAIcEE5EntryESt4pairIKS6_St8multimapIS6_PKcNS6_8KeyOrderESaIS7_IS8_SB_EEEESt10_Select1stISG_ESC_SaISG_EED1Ev @257
    _ZNSt8multimapIN15CSimpleIniTemplIc9SI_NoCaseIcE11SI_ConvertAIcEE5EntryEPKcNS6_8KeyOrderESaISt4pairIKS6_S8_EEE3endEv @258
    _ZNSt8multimapIN15CSimpleIniTemplIc9SI_NoCaseIcE11SI_ConvertAIcEE5EntryEPKcNS6_8KeyOrderESaISt4pairIKS6_S8_EEE4findERSB_ @259
    _ZNSt8multimapIN15CSimpleIniTemplIc9SI_NoCaseIcE11SI_ConvertAIcEE5EntryEPKcNS6_8KeyOrderESaISt4pairIKS6_S8_EEE5beginEv @260
    _ZNSt8multimapIN15CSimpleIniTemplIc9SI_NoCaseIcE11SI_ConvertAIcEE5EntryEPKcNS6_8KeyOrderESaISt4pairIKS6_S8_EEE5eraseESt17_Rb_tree_iteratorISC_E @261
    _ZNSt8multimapIN15CSimpleIniTemplIc9SI_NoCaseIcE11SI_ConvertAIcEE5EntryEPKcNS6_8KeyOrderESaISt4pairIKS6_S8_EEE6insertERKSC_ @262
    _ZNSt8multimapIN15CSimpleIniTemplIc9SI_NoCaseIcE11SI_ConvertAIcEE5EntryEPKcNS6_8KeyOrderESaISt4pairIKS6_S8_EEEC1ERKSE_ @263
    _ZNSt8multimapIN15CSimpleIniTemplIc9SI_NoCaseIcE11SI_ConvertAIcEE5EntryEPKcNS6_8KeyOrderESaISt4pairIKS6_S8_EEEC1Ev @264
    _ZNSt8multimapIN15CSimpleIniTemplIc9SI_NoCaseIcE11SI_ConvertAIcEE5EntryEPKcNS6_8KeyOrderESaISt4pairIKS6_S8_EEED1Ev @265
    _ZStplIcSt11char_traitsIcESaIcEESbIT_T0_T1_ERKS6_PKS3_ @266
    _ZTIN10FileLoader3IniE @267 DATA
    _ZTSN10FileLoader3IniE @268 DATA
    _ZTVN10FileLoader3IniE @269 DATA
    _ZZN15CSimpleIniTemplIc9SI_NoCaseIcE11SI_ConvertAIcEE8LoadDataEPKcjE5empty @270 DATA
    _ZZNK15CSimpleIniTemplIc9SI_NoCaseIcE11SI_ConvertAIcEE5Entry8KeyOrderclERKS5_S8_E6isLess @271 DATA
    _ZZNK15CSimpleIniTemplIc9SI_NoCaseIcE11SI_ConvertAIcEE6IsLessEPKcS6_E6isLess @272 DATA
    _ZdlPvS_ @273
    _ZnwjPv @274
    _dist_code @275 DATA
    _get_output_format @276
    _length_code @277 DATA
    _tr_align @278
    _tr_flush_block @279
    _tr_init @280
    _tr_stored_block @281
    _tr_tally @282
    adler32 @283
    adler32_combine @284
    adler32_combine64 @285
    call_zopen64 @286
    call_zseek64 @287
    call_ztell64 @288
    change_file_date @289
    compress @290
    compress2 @291
    compressBound @292
    crc32 @293
    crc32_combine @294
    crc32_combine64 @295
    deflate @296
    deflateBound @297
    deflateCopy @298
    deflateEnd @299
    deflateInit2_ @300
    deflateInit_ @301
    deflateParams @302
    deflatePrime @303
    deflateReset @304
    deflateSetDictionary @305
    deflateSetHeader @306
    deflateTune @307
    deflate_copyright @308 DATA
    do_extract @309
    do_extract_currentfile @310
    do_extract_onefile @311
    do_list @312
    fill_fopen64_filefunc @313
    fill_fopen_filefunc @314
    fill_win32_filefunc @315
    fill_win32_filefunc64 @316
    fill_win32_filefunc64A @317
    fill_win32_filefunc64W @318
    fill_zlib_filefunc64_32_def_from_filefunc32 @319
    fopen64 @320
    get_crc_table @321
    gz_error @322
    gzbuffer @323
    gzclearerr @324
    gzclose @325
    gzclose_r @326
    gzclose_w @327
    gzdirect @328
    gzdopen @329
    gzeof @330
    gzerror @331
    gzflush @332
    gzgetc @333
    gzgets @334
    gzoffset @335
    gzoffset64 @336
    gzopen @337
    gzopen64 @338
    gzprintf @339
    gzputc @340
    gzputs @341
    gzread @342
    gzrewind @343
    gzseek @344
    gzseek64 @345
    gzsetparams @346
    gztell @347
    gztell64 @348
    gzungetc @349
    gzwrite @350
    inflate @351
    inflateBack @352
    inflateBackEnd @353
    inflateBackInit_ @354
    inflateCopy @355
    inflateEnd @356
    inflateGetHeader @357
    inflateInit2_ @358
    inflateInit_ @359
    inflateMark @360
    inflatePrime @361
    inflateReset @362
    inflateReset2 @363
    inflateSetDictionary @364
    inflateSync @365
    inflateSyncPoint @366
    inflateUndermine @367
    inflate_copyright @368 DATA
    inflate_fast @369
    inflate_table @370
    isLegalUTF8Sequence @371
    makedir @372
    mymkdir @373
    uncompress @374
    unzClose @375
    unzCloseCurrentFile @376
    unzGetCurrentFileInfo @377
    unzGetCurrentFileInfo64 @378
    unzGetCurrentFileZStreamPos64 @379
    unzGetFilePos @380
    unzGetFilePos64 @381
    unzGetGlobalComment @382
    unzGetGlobalInfo @383
    unzGetGlobalInfo64 @384
    unzGetLocalExtrafield @385
    unzGetOffset @386
    unzGetOffset64 @387
    unzGoToFilePos @388
    unzGoToFilePos64 @389
    unzGoToFirstFile @390
    unzGoToNextFile @391
    unzLocateFile @392
    unzOpen @393
    unzOpen2 @394
    unzOpen2_64 @395
    unzOpen64 @396
    unzOpenCurrentFile @397
    unzOpenCurrentFile2 @398
    unzOpenCurrentFile3 @399
    unzOpenCurrentFilePassword @400
    unzReadCurrentFile @401
    unzRepair @402
    unzSetOffset @403
    unzSetOffset64 @404
    unzStringFileNameCompare @405
    unz_copyright @406 DATA
    unzeof @407
    unztell @408
    unztell64 @409
    win32_close_file_func @410
    win32_error_file_func @411
    win32_open64_file_func @412
    win32_open64_file_funcA @413
    win32_open64_file_funcW @414
    win32_open_file_func @415
    win32_read_file_func @416
    win32_seek64_file_func @417
    win32_seek_file_func @418
    win32_tell64_file_func @419
    win32_tell_file_func @420
    win32_write_file_func @421
    zError @422
    z_errmsg @423 DATA
    zcalloc @424
    zcfree @425
    zipClose @426
    zipCloseFileInZip @427
    zipCloseFileInZipRaw @428
    zipCloseFileInZipRaw64 @429
    zipOpen @430
    zipOpen2 @431
    zipOpen2_64 @432
    zipOpen3 @433
    zipOpen64 @434
    zipOpenNewFileInZip @435
    zipOpenNewFileInZip2 @436
    zipOpenNewFileInZip2_64 @437
    zipOpenNewFileInZip3 @438
    zipOpenNewFileInZip3_64 @439
    zipOpenNewFileInZip4 @440
    zipOpenNewFileInZip4_64 @441
    zipOpenNewFileInZip64 @442
    zipRemoveExtraInfoBlock @443
    zipWriteInFileInZip @444
    zip_copyright @445 DATA
    zlibCompileFlags @446
    zlibVersion @447
