EXPORTS
    _ZN14pogelInterface11haspropertyEP7_objectS1_ @1
    _ZN14pogelInterface11mouse_pos_xEP7_objectS1_ @2
    _ZN14pogelInterface11mouse_pos_yEP7_objectS1_ @3
    _ZN14pogelInterface12mouse_pos_sxEP7_objectS1_ @4
    _ZN14pogelInterface12mouse_pos_syEP7_objectS1_ @5
    _ZN14pogelInterface12window_widthEP7_objectS1_ @6
    _ZN14pogelInterface13addsimulationEP7_objectS1_ @7
    _ZN14pogelInterface13getpropertiesEP7_objectS1_ @8
    _ZN14pogelInterface13key_ispressedEP7_objectS1_ @9
    _ZN14pogelInterface13object_move_sEP7_objectS1_ @10
    _ZN14pogelInterface13setpropertiesEP7_objectS1_ @11
    _ZN14pogelInterface13window_heightEP7_objectS1_ @12
    _ZN14pogelInterface14object_move_3fEP7_objectS1_ @13
    _ZN14pogelInterface14requestfile_arEP7_objectS1_ @14
    _ZN14pogelInterface15mouse_getbuttonEP7_objectS1_ @15
    _ZN14pogelInterface15mouse_ispressedEP7_objectS1_ @16
    _ZN14pogelInterface16camera_set_pos_sEP7_objectS1_ @17
    _ZN14pogelInterface16camera_set_rot_sEP7_objectS1_ @18
    _ZN14pogelInterface16object_get_dir_sEP7_objectS1_ @19
    _ZN14pogelInterface16object_get_pos_sEP7_objectS1_ @20
    _ZN14pogelInterface16object_get_rot_sEP7_objectS1_ @21
    _ZN14pogelInterface16object_set_dir_sEP7_objectS1_ @22
    _ZN14pogelInterface16object_set_pos_sEP7_objectS1_ @23
    _ZN14pogelInterface16object_set_rot_sEP7_objectS1_ @24
    _ZN14pogelInterface16togglesimulationEP7_objectS1_ @25
    _ZN14pogelInterface17camera_set_pos_3fEP7_objectS1_ @26
    _ZN14pogelInterface17camera_set_rot_3fEP7_objectS1_ @27
    _ZN14pogelInterface17object_get_spin_sEP7_objectS1_ @28
    _ZN14pogelInterface17object_set_dir_3fEP7_objectS1_ @29
    _ZN14pogelInterface17object_set_pos_3fEP7_objectS1_ @30
    _ZN14pogelInterface17object_set_rot_3fEP7_objectS1_ @31
    _ZN14pogelInterface17object_set_spin_sEP7_objectS1_ @32
    _ZN14pogelInterface18object_set_spin_3fEP7_objectS1_ @33
    _ZN14pogelInterface3fpsEP7_objectS1_ @34
    _ZN14pogelInterface4InitEv @35
    _ZN14pogelInterface7getlineEP7_objectS1_ @36
    _ZN14pogelInterface8key_lastEP7_objectS1_ @37
    _ZN14pogelInterface9addobjectEP7_objectS1_ @38
    _ZN5POGEL5POINT8toStringEv @39
    _ZN5POGEL5POINTC1ESs @40
    _ZN5POGEL5POINTC1Efff @41
    _ZN5POGEL5POINTC1Ev @42
    _ZN5POGEL5POINTC2Ev @43
    _ZN5POGEL5POINTaSERKS0_ @44
    _ZN5POGEL6VECTORC1ESs @45
    _ZN5POGEL6VECTORC1Ev @46
    _ZN5POGEL6VECTORaSES0_ @47
    _ZNSt11char_traitsIcE6lengthEPKc @48
    _ZStplIcSt11char_traitsIcESaIcEESbIT_T0_T1_EPKS3_RKS6_ @49
    _ZStplIcSt11char_traitsIcESaIcEESbIT_T0_T1_ERKS6_PKS3_ @50
    _ZStplIcSt11char_traitsIcESaIcEESbIT_T0_T1_ERKS6_S8_ @51
    __imp___glutCreateMenuWithExit@8 @52 DATA
    __imp___glutCreateWindowWithExit@8 @53 DATA
    __imp___glutInitWithExit@12 @54 DATA
    _get_output_format @55
