EXPORTS
    _Z11addCylinderPN5POGEL6OBJECTEfffffPNS_5IMAGEEffjNS_6MATRIXE @1
    _Z11unocupyobjsPN5POGEL7PHYSICS5SOLIDES2_NS_6VECTOREf @2
    _Z13bin_child_numh @3
    _Z13boundingcheckPN5POGEL7PHYSICS5SOLIDES2_ @4
    _Z14bool_child_numbbb @5
    _Z14checkcollisionPN5POGEL7PHYSICS10SIMULATIONE @6
    _Z14checkcollisionPN5POGEL7PHYSICS10SIMULATIONEmm @7
    _Z14stbi_write_bmpPKciiiPv @8
    _Z14stbi_write_tgaPKciiiPv @9
    _Z16addFunctionShapePN5POGEL6OBJECTEPFNS_5POINTEfffmmmEPKcPNS_5IMAGEEjfffmmm @10
    _Z18intersect_trianglePfS_S_S_S_S_S_S_ @11
    _Z28objectIntersectionProcessingPN5POGEL7PHYSICS10SIMULATIONEmm @12
    _Z2bnbbb @13
    _Z3rndv @14
    _Z7addCubePN5POGEL6OBJECTEfffPNS_5IMAGEEffjNS_6MATRIXE @15
    _Z7addDiskPN5POGEL6OBJECTEffffPNS_5IMAGEEffj @16
    _Z7addDiskPN5POGEL6OBJECTEffffPNS_5IMAGEEffjbNS_6MATRIXE @17
    _Z7collrunPv @18
    _Z7pullrunPv @19
    _Z9addSpherePN5POGEL6OBJECTEfffPNS_5IMAGEEffj @20
    _Z9addSpherePN5POGEL6OBJECTEfffPNS_5IMAGEEffjNS_6MATRIXE @21
    _ZN5POGEL10ThrotleFpsEi @22
    _ZN5POGEL10propertiesE @23 DATA
    _ZN5POGEL10start_longE @24 DATA
    _ZN5POGEL11addpropertyEj @25
    _ZN5POGEL11finish_longE @26 DATA
    _ZN5POGEL11haspropertyEj @27
    _ZN5POGEL12IncrementFpsEv @28
    _ZN5POGEL12UnthrotleFpsEv @29
    _ZN5POGEL12requestImageESs @30
    _ZN5POGEL13GetAverageFpsEv @31
    _ZN5POGEL13GetTimePassedEv @32
    _ZN5POGEL13getpropertiesEv @33
    _ZN5POGEL13setpropertiesEj @34
    _ZN5POGEL14removepropertyEj @35
    _ZN5POGEL15logfilefilenameE @36 DATA
    _ZN5POGEL16DegreesToRadiansEf @37
    _ZN5POGEL16RadiansToDegreesEf @38
    _ZN5POGEL16getStringSectionEcjbcjbSs @39
    _ZN5POGEL18GetSecondsPerFrameEv @40
    _ZN5POGEL19SetFramerateThrotleEf @41
    _ZN5POGEL22getOccurrencesInStringEcSs @42
    _ZN5POGEL23getStringComponentLevelEcbcbSsSs @43
    _ZN5POGEL23getStringComponentLevelEccSsSs @44
    _ZN5POGEL30framerate_throtling_correctionE @45 DATA
    _ZN5POGEL3fpsE @46 DATA
    _ZN5POGEL4LINE4drawEv @47
    _ZN5POGEL4LINE6getEndEv @48
    _ZN5POGEL4LINE8getStartEv @49
    _ZN5POGEL4LINE9getMiddleEv @50
    _ZN5POGEL4LINEC1ENS_5POINTES1_ @51
    _ZN5POGEL4LINEC1ENS_5POINTES1_NS_5COLORE @52
    _ZN5POGEL4LINEC1ENS_5POINTES1_jNS_5COLORE @53
    _ZN5POGEL4LINEC1Ev @54
    _ZN5POGEL4LINEaSERKS0_ @55
    _ZN5POGEL4QUAT5printEv @56
    _ZN5POGEL4QUAT8tomatrixEv @57
    _ZN5POGEL4QUAT9getvectorEv @58
    _ZN5POGEL4QUATC1ENS_6VECTOREf @59
    _ZN5POGEL4QUATC1ERNS_6MATRIXE @60
    _ZN5POGEL4QUATC1Ev @61
    _ZN5POGEL4QUATC2ENS_6VECTOREf @62
    _ZN5POGEL4QUATC2ERNS_6MATRIXE @63
    _ZN5POGEL4QUATaSERKS0_ @64
    _ZN5POGEL4QUATpLENS_6VECTORE @65
    _ZN5POGEL4QUATpLEf @66
    _ZN5POGEL4QUATplENS_6VECTORE @67
    _ZN5POGEL4QUATplEf @68
    _ZN5POGEL4VIEW10scenesetupEv @69
    _ZN5POGEL4VIEW10settexsizeEmm @70
    _ZN5POGEL4VIEW11haspropertyEj @71
    _ZN5POGEL4VIEW11resetscreenEv @72
    _ZN5POGEL4VIEW11screensizeXE @73 DATA
    _ZN5POGEL4VIEW11screensizeYE @74 DATA
    _ZN5POGEL4VIEW11startrenderEv @75
    _ZN5POGEL4VIEW13setviewoffsetEmm @76
    _ZN5POGEL4VIEW4saveEjPKc @77
    _ZN5POGEL4VIEW5buildEv @78
    _ZN5POGEL4VIEW5sceneEv @79
    _ZN5POGEL4VIEW9endrenderEv @80
    _ZN5POGEL4VIEWC1Ev @81
    _ZN5POGEL4VIEWC2Ev @82
    _ZN5POGEL4VIEWD1Ev @83
    _ZN5POGEL4VIEWD2Ev @84
    _ZN5POGEL5COLOR12setasbgcolorEv @85
    _ZN5POGEL5COLOR3setEv @86
    _ZN5POGEL5COLOR8toStringEv @87
    _ZN5POGEL5COLORC1ESs @88
    _ZN5POGEL5COLORC1Effff @89
    _ZN5POGEL5COLORC1Ev @90
    _ZN5POGEL5IMAGE12loadandbuildEPKc @91
    _ZN5POGEL5IMAGE3setEv @92
    _ZN5POGEL5IMAGE4loadEPKc @93
    _ZN5POGEL5IMAGE5buildEv @94
    _ZN5POGEL5IMAGE7getbaseEv @95
    _ZN5POGEL5IMAGE7isbuiltEv @96
    _ZN5POGEL5IMAGE8toStringEv @97
    _ZN5POGEL5IMAGE9getfilterEv @98
    _ZN5POGEL5IMAGE9setfilterEi @99
    _ZN5POGEL5IMAGEC1EPKc @100
    _ZN5POGEL5IMAGEC1EPKci @101
    _ZN5POGEL5IMAGEC1ESs @102
    _ZN5POGEL5IMAGEC1Ev @103
    _ZN5POGEL5IMAGEC2EPKc @104
    _ZN5POGEL5IMAGEC2EPKci @105
    _ZN5POGEL5IMAGEC2ESs @106
    _ZN5POGEL5IMAGEC2Ev @107
    _ZN5POGEL5IMAGED1Ev @108
    _ZN5POGEL5IMAGED2Ev @109
    _ZN5POGEL5POINT4drawEj @110
    _ZN5POGEL5POINT4drawEjNS_5COLORE @111
    _ZN5POGEL5POINT4drawEv @112
    _ZN5POGEL5POINT5isbadEv @113
    _ZN5POGEL5POINT5printEv @114
    _ZN5POGEL5POINT6drawtoES0_ @115
    _ZN5POGEL5POINT8distanceES0_ @116
    _ZN5POGEL5POINT8toStringEv @117
    _ZN5POGEL5POINTC1ESs @118
    _ZN5POGEL5POINTC1Efff @119
    _ZN5POGEL5POINTC1Ev @120
    _ZN5POGEL5POINTC2Ev @121
    _ZN5POGEL5POINTaSERKS0_ @122
    _ZN5POGEL5POINTdVERKf @123
    _ZN5POGEL5POINTdvEf @124
    _ZN5POGEL5POINTeqES0_ @125
    _ZN5POGEL5POINTmiES0_ @126
    _ZN5POGEL5POINTmlEf @127
    _ZN5POGEL5POINTneES0_ @128
    _ZN5POGEL5POINTpLERKS0_ @129
    _ZN5POGEL5POINTplES0_ @130
    _ZN5POGEL5aboutEfff @131
    _ZN5POGEL5errorEPKcz @132
    _ZN5POGEL5startE @133 DATA
    _ZN5POGEL6GetFpsEv @134
    _ZN5POGEL6MATRIX10multiplybyEf @135
    _ZN5POGEL6MATRIX11determinantEv @136
    _ZN5POGEL6MATRIX11getpositionEv @137
    _ZN5POGEL6MATRIX11getrotationEv @138
    _ZN5POGEL6MATRIX11raistopowerEi @139
    _ZN5POGEL6MATRIX14transformPointENS_5POINTE @140
    _ZN5POGEL6MATRIX14transformPointEPNS_5POINTE @141
    _ZN5POGEL6MATRIX15transformVectorENS_6VECTORE @142
    _ZN5POGEL6MATRIX15transformVectorEPNS_6VECTORE @143
    _ZN5POGEL6MATRIX15transformVertexENS_6VERTEXE @144
    _ZN5POGEL6MATRIX15transformVertexEPNS_6VERTEXE @145
    _ZN5POGEL6MATRIX17transformTriangleENS_8TRIANGLEE @146
    _ZN5POGEL6MATRIX17transformTriangleEPNS_8TRIANGLEE @147
    _ZN5POGEL6MATRIX3getEv @148
    _ZN5POGEL6MATRIX3setEPf @149
    _ZN5POGEL6MATRIX3setES0_ @150
    _ZN5POGEL6MATRIX5printEv @151
    _ZN5POGEL6MATRIX6getrowEi @152
    _ZN5POGEL6MATRIX6invertEv @153
    _ZN5POGEL6MATRIX6toquatEv @154
    _ZN5POGEL6MATRIX8fromaxisENS_6VECTOREf @155
    _ZN5POGEL6MATRIX8getvalueEii @156
    _ZN5POGEL6MATRIX8setvalueEiif @157
    _ZN5POGEL6MATRIX9getcolumnEi @158
    _ZN5POGEL6MATRIXC1ENS_5POINTES1_ @159
    _ZN5POGEL6MATRIXC1ENS_5POINTEi @160
    _ZN5POGEL6MATRIXC1ENS_6VECTOREf @161
    _ZN5POGEL6MATRIXC1EPf @162
    _ZN5POGEL6MATRIXC1ERKS0_ @163
    _ZN5POGEL6MATRIXC1Efi @164
    _ZN5POGEL6MATRIXC1Ev @165
    _ZN5POGEL6MATRIXC2ENS_5POINTES1_ @166
    _ZN5POGEL6MATRIXC2ENS_5POINTEi @167
    _ZN5POGEL6MATRIXC2ENS_6VECTOREf @168
    _ZN5POGEL6MATRIXC2EPf @169
    _ZN5POGEL6MATRIXC2ERKS0_ @170
    _ZN5POGEL6MATRIXC2Efi @171
    _ZN5POGEL6MATRIXC2Ev @172
    _ZN5POGEL6MATRIXD1Ev @173
    _ZN5POGEL6MATRIXaSERKS0_ @174
    _ZN5POGEL6MATRIXmiES0_ @175
    _ZN5POGEL6MATRIXmlES0_ @176
    _ZN5POGEL6MATRIXplES0_ @177
    _ZN5POGEL6OBJECT10addobjectsEPPS0_m @178
    _ZN5POGEL6OBJECT11addpropertyEj @179
    _ZN5POGEL6OBJECT11addtriangleENS_8TRIANGLEE @180
    _ZN5POGEL6OBJECT11getancestorEPKc @181
    _ZN5POGEL6OBJECT11getnumfacesEv @182
    _ZN5POGEL6OBJECT11gettriangleEm @183
    _ZN5POGEL6OBJECT11haspropertyEj @184
    _ZN5POGEL6OBJECT12addtrianglesEPNS_8TRIANGLEEm @185
    _ZN5POGEL6OBJECT12getancestoryEv @186
    _ZN5POGEL6OBJECT12getchildslotEv @187
    _ZN5POGEL6OBJECT12getdecendantEPKc @188
    _ZN5POGEL6OBJECT12getdecendantEPKcb @189
    _ZN5POGEL6OBJECT12killchildrenEv @190
    _ZN5POGEL6OBJECT13getprogenitorEv @191
    _ZN5POGEL6OBJECT13getpropertiesEv @192
    _ZN5POGEL6OBJECT13setpropertiesEj @193
    _ZN5POGEL6OBJECT14cleartrianglesEv @194
    _ZN5POGEL6OBJECT16addtrianglespaceEm @195
    _ZN5POGEL6OBJECT16getancestoryhashEv @196
    _ZN5POGEL6OBJECT20getancestorialmatrixEv @197
    _ZN5POGEL6OBJECT21scroll_all_tex_valuesEff @198
    _ZN5POGEL6OBJECT4drawEv @199
    _ZN5POGEL6OBJECT4stepEv @200
    _ZN5POGEL6OBJECT5buildEv @201
    _ZN5POGEL6OBJECT6createEv @202
    _ZN5POGEL6OBJECT6rotateENS_6VECTORE @203
    _ZN5POGEL6OBJECT6rotateENS_6VECTOREf @204
    _ZN5POGEL6OBJECT7destroyEv @205
    _ZN5POGEL6OBJECT7getnameEv @206
    _ZN5POGEL6OBJECT7setnameEPKc @207
    _ZN5POGEL6OBJECT8getchildEPKc @208
    _ZN5POGEL6OBJECT8getsnameEv @209
    _ZN5POGEL6OBJECT8stepFuncEv @210
    _ZN5POGEL6OBJECT9addobjectEPS0_ @211
    _ZN5POGEL6OBJECT9incrementEv @212
    _ZN5POGEL6OBJECT9translateENS_6VECTORE @213
    _ZN5POGEL6OBJECT9translateENS_6VECTOREf @214
    _ZN5POGEL6OBJECTC1EPKc @215
    _ZN5POGEL6OBJECTC1EPKcPNS_8TRIANGLEEmj @216
    _ZN5POGEL6OBJECTC1EPKcPNS_8TRIANGLEEmjNS_5POINTES5_ @217
    _ZN5POGEL6OBJECTC1EPKcj @218
    _ZN5POGEL6OBJECTC1EPNS_8TRIANGLEEmj @219
    _ZN5POGEL6OBJECTC1EPNS_8TRIANGLEEmjNS_5POINTES3_ @220
    _ZN5POGEL6OBJECTC1Ej @221
    _ZN5POGEL6OBJECTC1Ev @222
    _ZN5POGEL6OBJECTC2EPKc @223
    _ZN5POGEL6OBJECTC2EPKcPNS_8TRIANGLEEmj @224
    _ZN5POGEL6OBJECTC2EPKcPNS_8TRIANGLEEmjNS_5POINTES5_ @225
    _ZN5POGEL6OBJECTC2EPKcj @226
    _ZN5POGEL6OBJECTC2EPNS_8TRIANGLEEmj @227
    _ZN5POGEL6OBJECTC2EPNS_8TRIANGLEEmjNS_5POINTES3_ @228
    _ZN5POGEL6OBJECTC2EPS0_ @229
    _ZN5POGEL6OBJECTC2Ej @230
    _ZN5POGEL6OBJECTC2Ev @231
    _ZN5POGEL6OBJECTD1Ev @232
    _ZN5POGEL6OBJECTD2Ev @233
    _ZN5POGEL6OCTREEINS_7PHYSICS5SOLIDEE10bool_childEbbb @234
    _ZN5POGEL6OCTREEINS_7PHYSICS5SOLIDEE11getboundingEv @235
    _ZN5POGEL6OCTREEINS_7PHYSICS5SOLIDEE11getpositionEv @236
    _ZN5POGEL6OCTREEINS_7PHYSICS5SOLIDEE11numchildrenEv @237
    _ZN5POGEL6OCTREEINS_7PHYSICS5SOLIDEE13FORCEfastlistEv @238
    _ZN5POGEL6OCTREEINS_7PHYSICS5SOLIDEE13getmasscenterEv @239
    _ZN5POGEL6OCTREEINS_7PHYSICS5SOLIDEE14relevent_childENS_5POINTES4_ @240
    _ZN5POGEL6OCTREEINS_7PHYSICS5SOLIDEE15FORCEresizelistEj @241
    _ZN5POGEL6OCTREEINS_7PHYSICS5SOLIDEE16releventIndiciesENS_5POINTENS_8BOUNDINGE @242
    _ZN5POGEL6OCTREEINS_7PHYSICS5SOLIDEE16releventIndiciesENS_8BOUNDINGE @243
    _ZN5POGEL6OCTREEINS_7PHYSICS5SOLIDEE4drawEv @244
    _ZN5POGEL6OCTREEINS_7PHYSICS5SOLIDEE4growEv @245
    _ZN5POGEL6OCTREEINS_7PHYSICS5SOLIDEE5childEj @246
    _ZN5POGEL6OCTREEINS_7PHYSICS5SOLIDEE5placeEPS2_j @247
    _ZN5POGEL6OCTREEINS_7PHYSICS5SOLIDEE6cornerEj @248
    _ZN5POGEL6OCTREEINS_7PHYSICS5SOLIDEE6objectEj @249
    _ZN5POGEL6OCTREEINS_7PHYSICS5SOLIDEE6setposENS_5POINTE @250
    _ZN5POGEL6OCTREEINS_7PHYSICS5SOLIDEE7getMassEv @251
    _ZN5POGEL6OCTREEINS_7PHYSICS5SOLIDEE7getpullENS_5POINTEf @252
    _ZN5POGEL6OCTREEINS_7PHYSICS5SOLIDEE7numobjsEv @253
    _ZN5POGEL6OCTREEINS_7PHYSICS5SOLIDEE9objhasposENS_5POINTE @254
    _ZN5POGEL6OCTREEINS_7PHYSICS5SOLIDEEC1EP8HASHLISTIPS2_Ejb @255
    _ZN5POGEL6OCTREEINS_7PHYSICS5SOLIDEEC1EPS3_ @256
    _ZN5POGEL6OCTREEINS_7PHYSICS5SOLIDEED1Ev @257
    _ZN5POGEL6SPRITE4drawEv @258
    _ZN5POGEL6THREAD10joinThreadEv @259
    _ZN5POGEL6THREAD11startThreadEv @260
    _ZN5POGEL6THREAD7setDataEPv @261
    _ZN5POGEL6THREAD9setThreadEPFPvS1_E @262
    _ZN5POGEL6THREADC1Ev @263
    _ZN5POGEL6THREADD1Ev @264
    _ZN5POGEL6VECTOR10dotproductES0_ @265
    _ZN5POGEL6VECTOR10frompointsENS_5POINTES1_ @266
    _ZN5POGEL6VECTOR11anglenormalEv @267
    _ZN5POGEL6VECTOR11getdistanceEv @268
    _ZN5POGEL6VECTOR12dodotproductES0_ @269
    _ZN5POGEL6VECTOR14anglenormalizeEv @270
    _ZN5POGEL6VECTOR6normalEv @271
    _ZN5POGEL6VECTOR7topointEv @272
    _ZN5POGEL6VECTOR8getangleES0_S0_ @273
    _ZN5POGEL6VECTOR9normalizeEv @274
    _ZN5POGEL6VECTORC1ENS_5POINTE @275
    _ZN5POGEL6VECTORC1ENS_5POINTES1_ @276
    _ZN5POGEL6VECTORC1ESs @277
    _ZN5POGEL6VECTORC1Efff @278
    _ZN5POGEL6VECTORC1Ev @279
    _ZN5POGEL6VECTORC2ENS_5POINTES1_ @280
    _ZN5POGEL6VECTORaSES0_ @281
    _ZN5POGEL6VECTORdVERKf @282
    _ZN5POGEL6VECTORdvEf @283
    _ZN5POGEL6VECTOReqES0_ @284
    _ZN5POGEL6VECTORmIERKS0_ @285
    _ZN5POGEL6VECTORmLERKf @286
    _ZN5POGEL6VECTORmiES0_ @287
    _ZN5POGEL6VECTORmlEf @288
    _ZN5POGEL6VECTORpLERKS0_ @289
    _ZN5POGEL6VECTORplES0_ @290
    _ZN5POGEL6VERTEX10set_valuesEfffff @291
    _ZN5POGEL6VERTEX14set_tex_valuesEff @292
    _ZN5POGEL6VERTEX16set_point_valuesEfff @293
    _ZN5POGEL6VERTEX17scroll_tex_valuesEff @294
    _ZN5POGEL6VERTEX7topointEv @295
    _ZN5POGEL6VERTEX8toStringEv @296
    _ZN5POGEL6VERTEXC1ESs @297
    _ZN5POGEL6VERTEXC1Efff @298
    _ZN5POGEL6VERTEXC1Ev @299
    _ZN5POGEL6VERTEXaSERKS0_ @300
    _ZN5POGEL6VERTEXdvEf @301
    _ZN5POGEL6VERTEXplES0_ @302
    _ZN5POGEL6finishE @303 DATA
    _ZN5POGEL6framesE @304 DATA
    _ZN5POGEL6getcmdEiPPc @305
    _ZN5POGEL6lstimgEj @306
    _ZN5POGEL6stringEPKcz @307
    _ZN5POGEL7FRACTAL11haspropertyEj @308
    _ZN5POGEL7FRACTAL4growEv @309
    _ZN5POGEL7FRACTAL4stepEv @310
    _ZN5POGEL7FRACTAL5spawnEv @311
    _ZN5POGEL7FRACTAL6createEv @312
    _ZN5POGEL7FRACTAL7destroyEv @313
    _ZN5POGEL7FRACTAL8condenseEv @314
    _ZN5POGEL7FRACTALC1EPvPFvPS0_mES4_m @315
    _ZN5POGEL7FRACTALC1EPvPFvPS0_mES4_mm @316
    _ZN5POGEL7FRACTALC1Ev @317
    _ZN5POGEL7FRACTALC2EPvPFvPS0_mES4_m @318
    _ZN5POGEL7FRACTALC2EPvPFvPS0_mES4_mm @319
    _ZN5POGEL7FRACTALC2Ev @320
    _ZN5POGEL7FRACTALD1Ev @321
    _ZN5POGEL7FRACTALD2Ev @322
    _ZN5POGEL7InitFpsEv @323
    _ZN5POGEL7PHYSICS10SIMULATION10numThreadsEv @324
    _ZN5POGEL7PHYSICS10SIMULATION13collincrementEv @325
    _ZN5POGEL7PHYSICS10SIMULATION14reactcollisionEPNS0_5SOLIDES3_NS_6VECTORES4_NS_5POINTE @326
    _ZN5POGEL7PHYSICS10SIMULATION15checkcollisionsEv @327
    _ZN5POGEL7PHYSICS10SIMULATION16processcollisionEPNS0_5SOLIDES3_ @328
    _ZN5POGEL7PHYSICS10SIMULATION20processCONVEX_CONVEXEPNS0_5SOLIDES3_ @329
    _ZN5POGEL7PHYSICS10SIMULATION20processSPHERE_SPHEREEPNS0_5SOLIDES3_ @330
    _ZN5POGEL7PHYSICS10SIMULATION21processSPHERE_GENERALEPNS0_5SOLIDES3_ @331
    _ZN5POGEL7PHYSICS10SIMULATION22processGENERAL_GENERALEPNS0_5SOLIDES3_ @332
    _ZN5POGEL7PHYSICS10SIMULATION27processCONCAVESPHERE_SPHEREEPNS0_5SOLIDES3_ @333
    _ZN5POGEL7PHYSICS10SIMULATION27processSPHERE_CONVEXGENERALEPNS0_5SOLIDES3_ @334
    _ZN5POGEL7PHYSICS10SIMULATION28processCONCAVESPHERE_GENERALEPNS0_5SOLIDES3_ @335
    _ZN5POGEL7PHYSICS10SIMULATION28processSPHERE_CONCAVEGENERALEPNS0_5SOLIDES3_ @336
    _ZN5POGEL7PHYSICS10SIMULATION34processCONCAVESPHERE_CONVEXGENERALEPNS0_5SOLIDES3_ @337
    _ZN5POGEL7PHYSICS10SIMULATION7buildotEv @338
    _ZN5POGEL7PHYSICS10SIMULATION8addpullsEmm @339
    _ZN5POGEL7PHYSICS10SIMULATION8addpullsEv @340
    _ZN5POGEL7PHYSICS10SIMULATION8stepobjsEv @341
    _ZN5POGEL7PHYSICS10SIMULATION9incrementEv @342
    _ZN5POGEL7PHYSICS10SIMULATIONC1Ev @343
    _ZN5POGEL7PHYSICS10SIMULATIONC2Ev @344
    _ZN5POGEL7PHYSICS10SIMULATIOND2Ev @345
    _ZN5POGEL7PHYSICS11SINGULARITY12getIntencityEv @346
    _ZN5POGEL7PHYSICS11SINGULARITY7getpullENS_5POINTEf @347
    _ZN5POGEL7PHYSICS11SINGULARITY9getCenterEv @348
    _ZN5POGEL7PHYSICS11SINGULARITYC1ENS_5POINTEf @349
    _ZN5POGEL7PHYSICS11SINGULARITYC1EPNS_5POINTEPf @350
    _ZN5POGEL7PHYSICS11SINGULARITYC1ERKS1_ @351
    _ZN5POGEL7PHYSICS11SINGULARITYC1Ev @352
    _ZN5POGEL7PHYSICS11SINGULARITYC2ENS_5POINTEf @353
    _ZN5POGEL7PHYSICS11SINGULARITYC2ERKS1_ @354
    _ZN5POGEL7PHYSICS11SINGULARITYC2Ev @355
    _ZN5POGEL7PHYSICS11SINGULARITYaSERKS1_ @356
    _ZN5POGEL7PHYSICS14GRAVITYCLUSTER14addsingularityENS0_11SINGULARITYE @357
    _ZN5POGEL7PHYSICS14GRAVITYCLUSTER16addsingularitiesEPNS0_11SINGULARITYEm @358
    _ZN5POGEL7PHYSICS14GRAVITYCLUSTER6removeEm @359
    _ZN5POGEL7PHYSICS14GRAVITYCLUSTER7getpullENS_5POINTEf @360
    _ZN5POGEL7PHYSICS14GRAVITYCLUSTERC1Ev @361
    _ZN5POGEL7PHYSICS14GRAVITYCLUSTERD1Ev @362
    _ZN5POGEL7PHYSICS15solid_collisionEPNS0_5SOLIDES2_PNS_5POINTEPNS_6VECTORES6_Pf @363
    _ZN5POGEL7PHYSICS18triangle_collisionENS_8TRIANGLEES1_PNS_5POINTES3_ @364
    _ZN5POGEL7PHYSICS19line_point_distanceENS_5POINTENS_4LINEEPS1_ @365
    _ZN5POGEL7PHYSICS20solid_line_collisionEPNS0_5SOLIDENS_5POINTES3_PNS_8TRIANGLEEPS3_S6_ @366
    _ZN5POGEL7PHYSICS20solid_line_collisionEiPNS0_5SOLIDENS_5POINTES3_PNS_8TRIANGLEEPS3_S6_ @367
    _ZN5POGEL7PHYSICS21calcElasticDirectionsENS_6VECTOREPNS0_5SOLIDES3_PS1_ @368
    _ZN5POGEL7PHYSICS23SOLIDPHYSICALPROPERTIES8toStringEv @369
    _ZN5POGEL7PHYSICS23SOLIDPHYSICALPROPERTIESC1ESs @370
    _ZN5POGEL7PHYSICS23SOLIDPHYSICALPROPERTIESC1Ev @371
    _ZN5POGEL7PHYSICS23calcInelasticDirectionsENS_6VECTOREPNS0_5SOLIDES3_PS1_ @372
    _ZN5POGEL7PHYSICS23line_triangle_collisionENS_5POINTES1_NS_8TRIANGLEEPS1_S3_ @373
    _ZN5POGEL7PHYSICS23point_triangle_distanceENS_5POINTENS_8TRIANGLEEPS1_ @374
    _ZN5POGEL7PHYSICS3FAN12getDirectionEv @375
    _ZN5POGEL7PHYSICS3FAN7getpullENS_5POINTEf @376
    _ZN5POGEL7PHYSICS3FANC1ENS_5POINTENS_6VECTOREf @377
    _ZN5POGEL7PHYSICS3FANC1ERKS1_ @378
    _ZN5POGEL7PHYSICS3FANC1Ev @379
    _ZN5POGEL7PHYSICS3FANaSERKS1_ @380
    _ZN5POGEL7PHYSICS4FLOW13generatecurveEPNS_5POINTEmb @381
    _ZN5POGEL7PHYSICS4FLOW6addfanENS0_3FANE @382
    _ZN5POGEL7PHYSICS4FLOW7addfansEPNS0_3FANEm @383
    _ZN5POGEL7PHYSICS4FLOW7getpullENS_5POINTEf @384
    _ZN5POGEL7PHYSICS4FLOWC1Ev @385
    _ZN5POGEL7PHYSICS4FLOWD1Ev @386
    _ZN5POGEL7PHYSICS5SOLID10clearForceEv @387
    _ZN5POGEL7PHYSICS5SOLID10forcesleepEv @388
    _ZN5POGEL7PHYSICS5SOLID10getOptionsEv @389
    _ZN5POGEL7PHYSICS5SOLID10samelegacyEf @390
    _ZN5POGEL7PHYSICS5SOLID10samelegacyEfm @391
    _ZN5POGEL7PHYSICS5SOLID10setOptionsEj @392
    _ZN5POGEL7PHYSICS5SOLID11getboundingEv @393
    _ZN5POGEL7PHYSICS5SOLID11getpositionEv @394
    _ZN5POGEL7PHYSICS5SOLID11offsettrailENS_6VECTORE @395
    _ZN5POGEL7PHYSICS5SOLID11resizetrailEm @396
    _ZN5POGEL7PHYSICS5SOLID11setCallbackEPFvPS1_PcE @397
    _ZN5POGEL7PHYSICS5SOLID11setStepFuncEPFvPS1_E @398
    _ZN5POGEL7PHYSICS5SOLID12makeboundingEv @399
    _ZN5POGEL7PHYSICS5SOLID12steppostrailEv @400
    _ZN5POGEL7PHYSICS5SOLID12steprottrailEv @401
    _ZN5POGEL7PHYSICS5SOLID13getLabelColorEv @402
    _ZN5POGEL7PHYSICS5SOLID13getstepstakenEv @403
    _ZN5POGEL7PHYSICS5SOLID13sameposlegacyEf @404
    _ZN5POGEL7PHYSICS5SOLID13sameposlegacyEfm @405
    _ZN5POGEL7PHYSICS5SOLID13samerotlegacyEf @406
    _ZN5POGEL7PHYSICS5SOLID13samerotlegacyEfm @407
    _ZN5POGEL7PHYSICS5SOLID13setstepstakenEm @408
    _ZN5POGEL7PHYSICS5SOLID14cleartrianglesEv @409
    _ZN5POGEL7PHYSICS5SOLID16forcegetboundingEv @410
    _ZN5POGEL7PHYSICS5SOLID16setboundingskipsEv @411
    _ZN5POGEL7PHYSICS5SOLID4drawEv @412
    _ZN5POGEL7PHYSICS5SOLID4stepEv @413
    _ZN5POGEL7PHYSICS5SOLID4wakeEv @414
    _ZN5POGEL7PHYSICS5SOLID5buildEv @415
    _ZN5POGEL7PHYSICS5SOLID5sleepEv @416
    _ZN5POGEL7PHYSICS5SOLID7closestENS_5POINTEPS2_PNS_8TRIANGLEE @417
    _ZN5POGEL7PHYSICS5SOLID7closestEPS1_PNS_5POINTES4_PNS_8TRIANGLEES6_ @418
    _ZN5POGEL7PHYSICS5SOLID7nappingEv @419
    _ZN5POGEL7PHYSICS5SOLID7zombifyEv @420
    _ZN5POGEL7PHYSICS5SOLID8addForceEv @421
    _ZN5POGEL7PHYSICS5SOLID8toStringEv @422
    _ZN5POGEL7PHYSICS5SOLID9addOptionEj @423
    _ZN5POGEL7PHYSICS5SOLID9forcewakeEv @424
    _ZN5POGEL7PHYSICS5SOLID9hasOptionEj @425
    _ZN5POGEL7PHYSICS5SOLID9incrementEv @426
    _ZN5POGEL7PHYSICS5SOLID9steptrailEv @427
    _ZN5POGEL7PHYSICS5SOLID9unzombifyEv @428
    _ZN5POGEL7PHYSICS5SOLIDC1ENS0_23SOLIDPHYSICALPROPERTIESEj @429
    _ZN5POGEL7PHYSICS5SOLIDC1EPKc @430
    _ZN5POGEL7PHYSICS5SOLIDC1EPNS_6OBJECTENS0_23SOLIDPHYSICALPROPERTIESEj @431
    _ZN5POGEL7PHYSICS5SOLIDC1ESs @432
    _ZN5POGEL7PHYSICS5SOLIDC1Ev @433
    _ZN5POGEL7PHYSICS5SOLIDC2ENS0_23SOLIDPHYSICALPROPERTIESEj @434
    _ZN5POGEL7PHYSICS5SOLIDC2EPKc @435
    _ZN5POGEL7PHYSICS5SOLIDC2EPNS_6OBJECTENS0_23SOLIDPHYSICALPROPERTIESEj @436
    _ZN5POGEL7PHYSICS5SOLIDC2ESs @437
    _ZN5POGEL7PHYSICS5SOLIDC2Ev @438
    _ZN5POGEL7PHYSICS5SOLIDD1Ev @439
    _ZN5POGEL7PHYSICS5SOLIDD2Ev @440
    _ZN5POGEL7PHYSICS5getvfEfffff @441
    _ZN5POGEL7PHYSICS8DYNAMICS11addpropertyEj @442
    _ZN5POGEL7PHYSICS8DYNAMICS11haspropertyEj @443
    _ZN5POGEL7PHYSICS8DYNAMICS11removeSolidEPNS0_5SOLIDE @444
    _ZN5POGEL7PHYSICS8DYNAMICS15drawGravityGridEffNS_5POINTEj @445
    _ZN5POGEL7PHYSICS8DYNAMICS16addSolidsGravityEPNS0_5SOLIDE @446
    _ZN5POGEL7PHYSICS8DYNAMICS19addSolidHoldGravityEPNS0_5SOLIDE @447
    _ZN5POGEL7PHYSICS8DYNAMICS22removeSolidKeepGravityEPNS0_5SOLIDE @448
    _ZN5POGEL7PHYSICS8DYNAMICS4drawEv @449
    _ZN5POGEL7PHYSICS8DYNAMICS4objsEm @450
    _ZN5POGEL7PHYSICS8DYNAMICS7buildotEv @451
    _ZN5POGEL7PHYSICS8DYNAMICS7getpullEPNS0_5SOLIDE @452
    _ZN5POGEL7PHYSICS8DYNAMICS7numobjsEv @453
    _ZN5POGEL7PHYSICS8DYNAMICS8addSolidEPNS0_5SOLIDE @454
    _ZN5POGEL7PHYSICS8DYNAMICS8getSolidEPc @455
    _ZN5POGEL7PHYSICS8DYNAMICS8getotreeEv @456
    _ZN5POGEL7PHYSICS8DYNAMICS9addSolidsEPPNS0_5SOLIDEm @457
    _ZN5POGEL7PHYSICS8DYNAMICS9destroyotEv @458
    _ZN5POGEL7PHYSICS8DYNAMICS9incrementEv @459
    _ZN5POGEL7PHYSICS8DYNAMICSC1Ev @460
    _ZN5POGEL7PHYSICS8DYNAMICSC2Ev @461
    _ZN5POGEL7PHYSICS8DYNAMICSD2Ev @462
    _ZN5POGEL7PHYSICS8FOUNTAIN11haspropertyEj @463
    _ZN5POGEL7PHYSICS8FOUNTAIN4drawEv @464
    _ZN5POGEL7PHYSICS8FOUNTAIN4stepEv @465
    _ZN5POGEL7PHYSICS8FOUNTAIN5buildEv @466
    _ZN5POGEL7PHYSICS8FOUNTAIN7getpullEPNS0_5SOLIDE @467
    _ZN5POGEL7PHYSICS8FOUNTAIN9incrementEv @468
    _ZN5POGEL7PHYSICS8FOUNTAINC1Ev @469
    _ZN5POGEL7PHYSICS8FOUNTAINC2Ev @470
    _ZN5POGEL7PHYSICS8FOUNTAIND1Ev @471
    _ZN5POGEL7PHYSICS8FOUNTAIND2Ev @472
    _ZN5POGEL7PHYSICS9MICROCOSM11haspropertyEj @473
    _ZN5POGEL7PHYSICS9MICROCOSM4drawEv @474
    _ZN5POGEL7PHYSICS9MICROCOSM4stepEv @475
    _ZN5POGEL7PHYSICS9MICROCOSM5buildEv @476
    _ZN5POGEL7PHYSICS9MICROCOSM7getpullEPNS0_5SOLIDE @477
    _ZN5POGEL7PHYSICS9MICROCOSM9incrementEv @478
    _ZN5POGEL7PHYSICS9MICROCOSMC1Ev @479
    _ZN5POGEL7PHYSICS9MICROCOSMC2Ev @480
    _ZN5POGEL7PHYSICS9MICROCOSMD1Ev @481
    _ZN5POGEL7PHYSICS9MICROCOSMD2Ev @482
    _ZN5POGEL7PHYSICS9getvprimeEffff @483
    _ZN5POGEL7curtimeE @484 DATA
    _ZN5POGEL7messageEPKcz @485
    _ZN5POGEL7warningEPKcz @486
    _ZN5POGEL8BOUNDING11unsetactualEv @487
    _ZN5POGEL8BOUNDING12finishactualEv @488
    _ZN5POGEL8BOUNDING13checkboundingENS_5POINTES1_S0_ @489
    _ZN5POGEL8BOUNDING13checkboundingES0_ @490
    _ZN5POGEL8BOUNDING3finEf @491
    _ZN5POGEL8BOUNDING3setEfffffff @492
    _ZN5POGEL8BOUNDING4drawENS_5POINTE @493
    _ZN5POGEL8BOUNDING4drawEv @494
    _ZN5POGEL8BOUNDING5clearEv @495
    _ZN5POGEL8BOUNDING6offsetENS_5POINTE @496
    _ZN5POGEL8BOUNDING8addpointENS_5POINTE @497
    _ZN5POGEL8BOUNDING8addpointENS_5POINTES1_ @498
    _ZN5POGEL8BOUNDING8isinsideENS_5POINTES1_ @499
    _ZN5POGEL8BOUNDING9isoutsideENS_5POINTES1_ @500
    _ZN5POGEL8BOUNDING9surroundsENS_5POINTES1_S0_ @501
    _ZN5POGEL8BOUNDINGC1Ej @502
    _ZN5POGEL8BOUNDINGC1Ev @503
    _ZN5POGEL8BOUNDINGaSERKS0_ @504
    _ZN5POGEL8PrintFpsEv @505
    _ZN5POGEL8TRIANGLE11getboundingEv @506
    _ZN5POGEL8TRIANGLE11haspropertyEj @507
    _ZN5POGEL8TRIANGLE12makeboundingEv @508
    _ZN5POGEL8TRIANGLE17scroll_tex_valuesEff @509
    _ZN5POGEL8TRIANGLE4drawEv @510
    _ZN5POGEL8TRIANGLE4loadENS_6VERTEXES1_S1_PNS_5IMAGEEj @511
    _ZN5POGEL8TRIANGLE4loadEPNS_6VERTEXEPNS_5IMAGEEj @512
    _ZN5POGEL8TRIANGLE6middleEv @513
    _ZN5POGEL8TRIANGLE7getEdgeEj @514
    _ZN5POGEL8TRIANGLE8distanceENS_5POINTE @515
    _ZN5POGEL8TRIANGLE8toStringEv @516
    _ZN5POGEL8TRIANGLE9distcheckENS_5POINTEf @517
    _ZN5POGEL8TRIANGLE9isinfrontENS_5POINTE @518
    _ZN5POGEL8TRIANGLE9transformEPNS_6MATRIXE @519
    _ZN5POGEL8TRIANGLEC1ENS_6VERTEXES1_S1_PNS_5IMAGEEj @520
    _ZN5POGEL8TRIANGLEC1EPNS_6VERTEXEPNS_5IMAGEEj @521
    _ZN5POGEL8TRIANGLEC1ESs @522
    _ZN5POGEL8TRIANGLEC1ESsPNS_5IMAGEE @523
    _ZN5POGEL8TRIANGLEC1Ev @524
    _ZN5POGEL8TRIANGLEC2ESs @525
    _ZN5POGEL8TRIANGLEC2ESsPNS_5IMAGEE @526
    _ZN5POGEL8TRIANGLEaSERKS0_ @527
    _ZN5POGEL8durationE @528 DATA
    _ZN5POGEL8fatalityEiPKcz @529
    _ZN5POGEL8fps_longE @530 DATA
    _ZN5POGEL8inittimeE @531 DATA
    _ZN5POGEL9FloatRandEf @532
    _ZN5POGEL9imglstlenEv @533
    _ZN5POGEL9inittmpstE @534 DATA
    _ZN5POGEL9logtofileEPKcz @535
    _ZN5thdatC1EPN5POGEL7PHYSICS10SIMULATIONEjj @536
    _ZN5thdatD1Ev @537
    _ZN8HASHLISTIPN5POGEL6OCTREEINS0_7PHYSICS5SOLIDEEEE23FORCEresizeInternalListEj @538
    _ZN8HASHLISTIPN5POGEL6OCTREEINS0_7PHYSICS5SOLIDEEEE3addEPS6_ @539
    _ZN8HASHLISTIPN5POGEL6OCTREEINS0_7PHYSICS5SOLIDEEEE3addES5_ @540
    _ZN8HASHLISTIPN5POGEL6OCTREEINS0_7PHYSICS5SOLIDEEEE3getEj @541
    _ZN8HASHLISTIPN5POGEL6OCTREEINS0_7PHYSICS5SOLIDEEEE5clearEv @542
    _ZN8HASHLISTIPN5POGEL6OCTREEINS0_7PHYSICS5SOLIDEEEE6lengthEv @543
    _ZN8HASHLISTIPN5POGEL6OCTREEINS0_7PHYSICS5SOLIDEEEE6removeEj @544
    _ZN8HASHLISTIPN5POGEL6OCTREEINS0_7PHYSICS5SOLIDEEEE9faststealEPS6_ @545
    _ZN8HASHLISTIPN5POGEL6OCTREEINS0_7PHYSICS5SOLIDEEEEC1Ev @546
    _ZN8HASHLISTIPN5POGEL6OCTREEINS0_7PHYSICS5SOLIDEEEED1Ev @547
    _ZN8HASHLISTIPN5POGEL6OCTREEINS0_7PHYSICS5SOLIDEEEEixEj @548
    _ZN8HASHLISTIPN5POGEL6OCTREEINS0_7PHYSICS5SOLIDEEEEpLES5_ @549
    _ZN8HASHLISTIPN5POGEL7PHYSICS5SOLIDEE23FORCEresizeInternalListEj @550
    _ZN8HASHLISTIPN5POGEL7PHYSICS5SOLIDEE3addEPS4_ @551
    _ZN8HASHLISTIPN5POGEL7PHYSICS5SOLIDEE3addES3_ @552
    _ZN8HASHLISTIPN5POGEL7PHYSICS5SOLIDEE3getEj @553
    _ZN8HASHLISTIPN5POGEL7PHYSICS5SOLIDEE5clearEv @554
    _ZN8HASHLISTIPN5POGEL7PHYSICS5SOLIDEE6lengthEv @555
    _ZN8HASHLISTIPN5POGEL7PHYSICS5SOLIDEE6removeEj @556
    _ZN8HASHLISTIPN5POGEL7PHYSICS5SOLIDEE9faststealEPS4_ @557
    _ZN8HASHLISTIPN5POGEL7PHYSICS5SOLIDEEC1Ev @558
    _ZN8HASHLISTIPN5POGEL7PHYSICS5SOLIDEED1Ev @559
    _ZN8HASHLISTIPN5POGEL7PHYSICS5SOLIDEEixEj @560
    _ZN8HASHLISTIPN5POGEL7PHYSICS5SOLIDEEpLES3_ @561
    _ZN8HASHLISTIjE23FORCEresizeInternalListEj @562
    _ZN8HASHLISTIjE3addEPS0_ @563
    _ZN8HASHLISTIjE3addEj @564
    _ZN8HASHLISTIjE3getEj @565
    _ZN8HASHLISTIjE5clearEv @566
    _ZN8HASHLISTIjE6lengthEv @567
    _ZN8HASHLISTIjE6removeEj @568
    _ZN8HASHLISTIjE7pillageEPS0_ @569
    _ZN8HASHLISTIjE9faststealEPS0_ @570
    _ZN8HASHLISTIjEC1Ev @571
    _ZN8HASHLISTIjED1Ev @572
    _ZN8HASHLISTIjEixEj @573
    _ZN8HASHLISTIjEpLEj @574
    _ZN9CLASSLISTIN5POGEL7PHYSICS11SINGULARITYEE3addES2_ @575
    _ZN9CLASSLISTIN5POGEL7PHYSICS11SINGULARITYEE3getEj @576
    _ZN9CLASSLISTIN5POGEL7PHYSICS11SINGULARITYEE5clearEv @577
    _ZN9CLASSLISTIN5POGEL7PHYSICS11SINGULARITYEE6lengthEv @578
    _ZN9CLASSLISTIN5POGEL7PHYSICS11SINGULARITYEE6removeEj @579
    _ZN9CLASSLISTIN5POGEL7PHYSICS11SINGULARITYEEC1Ev @580
    _ZN9CLASSLISTIN5POGEL7PHYSICS11SINGULARITYEED1Ev @581
    _ZN9CLASSLISTIN5POGEL7PHYSICS3FANEE3addES2_ @582
    _ZN9CLASSLISTIN5POGEL7PHYSICS3FANEE3getEj @583
    _ZN9CLASSLISTIN5POGEL7PHYSICS3FANEE5clearEv @584
    _ZN9CLASSLISTIN5POGEL7PHYSICS3FANEE6lengthEv @585
    _ZN9CLASSLISTIN5POGEL7PHYSICS3FANEEC1Ev @586
    _ZN9CLASSLISTIN5POGEL7PHYSICS3FANEED1Ev @587
    _ZN9CLASSLISTIN5POGEL7PHYSICS3FANEEixEj @588
    _ZN9CLASSLISTIP9arraylistIPN5POGEL6OCTREEINS1_7PHYSICS5SOLIDEEEEE3addES8_ @589
    _ZN9CLASSLISTIP9arraylistIPN5POGEL6OCTREEINS1_7PHYSICS5SOLIDEEEEE3getEj @590
    _ZN9CLASSLISTIP9arraylistIPN5POGEL6OCTREEINS1_7PHYSICS5SOLIDEEEEE5clearEv @591
    _ZN9CLASSLISTIP9arraylistIPN5POGEL6OCTREEINS1_7PHYSICS5SOLIDEEEEE6lengthEv @592
    _ZN9CLASSLISTIP9arraylistIPN5POGEL6OCTREEINS1_7PHYSICS5SOLIDEEEEE6removeEj @593
    _ZN9CLASSLISTIP9arraylistIPN5POGEL6OCTREEINS1_7PHYSICS5SOLIDEEEEEC1Ev @594
    _ZN9CLASSLISTIP9arraylistIPN5POGEL6OCTREEINS1_7PHYSICS5SOLIDEEEEED1Ev @595
    _ZN9CLASSLISTIP9arraylistIPN5POGEL6OCTREEINS1_7PHYSICS5SOLIDEEEEEixEj @596
    _ZN9CLASSLISTIP9arraylistIPN5POGEL6OCTREEINS1_7PHYSICS5SOLIDEEEEEmIEj @597
    _ZN9CLASSLISTIP9arraylistIPN5POGEL6OCTREEINS1_7PHYSICS5SOLIDEEEEEpLES8_ @598
    _ZN9CLASSLISTIP9arraylistIPN5POGEL7PHYSICS5SOLIDEEE3addES6_ @599
    _ZN9CLASSLISTIP9arraylistIPN5POGEL7PHYSICS5SOLIDEEE3getEj @600
    _ZN9CLASSLISTIP9arraylistIPN5POGEL7PHYSICS5SOLIDEEE5clearEv @601
    _ZN9CLASSLISTIP9arraylistIPN5POGEL7PHYSICS5SOLIDEEE6lengthEv @602
    _ZN9CLASSLISTIP9arraylistIPN5POGEL7PHYSICS5SOLIDEEE6removeEj @603
    _ZN9CLASSLISTIP9arraylistIPN5POGEL7PHYSICS5SOLIDEEEC1Ev @604
    _ZN9CLASSLISTIP9arraylistIPN5POGEL7PHYSICS5SOLIDEEED1Ev @605
    _ZN9CLASSLISTIP9arraylistIPN5POGEL7PHYSICS5SOLIDEEEixEj @606
    _ZN9CLASSLISTIP9arraylistIPN5POGEL7PHYSICS5SOLIDEEEmIEj @607
    _ZN9CLASSLISTIP9arraylistIPN5POGEL7PHYSICS5SOLIDEEEpLES6_ @608
    _ZN9CLASSLISTIP9arraylistIjEE3addES2_ @609
    _ZN9CLASSLISTIP9arraylistIjEE3getEj @610
    _ZN9CLASSLISTIP9arraylistIjEE5clearEv @611
    _ZN9CLASSLISTIP9arraylistIjEE6lengthEv @612
    _ZN9CLASSLISTIP9arraylistIjEE6removeEj @613
    _ZN9CLASSLISTIP9arraylistIjEEC1Ev @614
    _ZN9CLASSLISTIP9arraylistIjEED1Ev @615
    _ZN9CLASSLISTIP9arraylistIjEEixEj @616
    _ZN9CLASSLISTIP9arraylistIjEEmIEj @617
    _ZN9CLASSLISTIP9arraylistIjEEpLES2_ @618
    _ZN9CLASSLISTIPN5POGEL5IMAGEEE3addES2_ @619
    _ZN9CLASSLISTIPN5POGEL5IMAGEEE3getEj @620
    _ZN9CLASSLISTIPN5POGEL5IMAGEEE4lastEv @621
    _ZN9CLASSLISTIPN5POGEL5IMAGEEE6lengthEv @622
    _ZN9CLASSLISTIPN5POGEL5IMAGEEEC1Ev @623
    _ZN9CLASSLISTIPN5POGEL5IMAGEEED1Ev @624
    _ZN9CLASSLISTIPN5POGEL5IMAGEEEixEj @625
    _ZN9arraylistIPN5POGEL6OCTREEINS0_7PHYSICS5SOLIDEEEE3addES5_ @626
    _ZN9arraylistIPN5POGEL6OCTREEINS0_7PHYSICS5SOLIDEEEE4seekEi @627
    _ZN9arraylistIPN5POGEL6OCTREEINS0_7PHYSICS5SOLIDEEEE5emptyEv @628
    _ZN9arraylistIPN5POGEL6OCTREEINS0_7PHYSICS5SOLIDEEEE5resetEv @629
    _ZN9arraylistIPN5POGEL6OCTREEINS0_7PHYSICS5SOLIDEEEE6removeEi @630
    _ZN9arraylistIPN5POGEL6OCTREEINS0_7PHYSICS5SOLIDEEEEC1Ev @631
    _ZN9arraylistIPN5POGEL6OCTREEINS0_7PHYSICS5SOLIDEEEED1Ev @632
    _ZN9arraylistIPN5POGEL6OCTREEINS0_7PHYSICS5SOLIDEEEEixEi @633
    _ZN9arraylistIPN5POGEL7PHYSICS5SOLIDEE3addES3_ @634
    _ZN9arraylistIPN5POGEL7PHYSICS5SOLIDEE4seekEi @635
    _ZN9arraylistIPN5POGEL7PHYSICS5SOLIDEE5emptyEv @636
    _ZN9arraylistIPN5POGEL7PHYSICS5SOLIDEE5resetEv @637
    _ZN9arraylistIPN5POGEL7PHYSICS5SOLIDEE6removeEi @638
    _ZN9arraylistIPN5POGEL7PHYSICS5SOLIDEEC1Ev @639
    _ZN9arraylistIPN5POGEL7PHYSICS5SOLIDEED1Ev @640
    _ZN9arraylistIPN5POGEL7PHYSICS5SOLIDEEixEi @641
    _ZN9arraylistIjE3addEj @642
    _ZN9arraylistIjE4seekEi @643
    _ZN9arraylistIjE5emptyEv @644
    _ZN9arraylistIjE5resetEv @645
    _ZN9arraylistIjE6removeEi @646
    _ZN9arraylistIjEC1Ev @647
    _ZN9arraylistIjED1Ev @648
    _ZN9arraylistIjEixEi @649
    _ZNK9arraylistIPN5POGEL6OCTREEINS0_7PHYSICS5SOLIDEEEE6lengthEv @650
    _ZNK9arraylistIPN5POGEL7PHYSICS5SOLIDEE6lengthEv @651
    _ZNK9arraylistIjE6lengthEv @652
    _ZNSt11char_traitsIcE6lengthEPKc @653
    _ZStorSt13_Ios_OpenmodeS_ @654
    _ZStplIcSt11char_traitsIcESaIcEESbIT_T0_T1_EPKS3_RKS6_ @655
    _ZStplIcSt11char_traitsIcESaIcEESbIT_T0_T1_ERKS6_PKS3_ @656
    _ZStplIcSt11char_traitsIcESaIcEESbIT_T0_T1_ERKS6_S8_ @657
    _ZTIN5POGEL4VIEWE @658 DATA
    _ZTIN5POGEL5IMAGEE @659 DATA
    _ZTIN5POGEL6OBJECTE @660 DATA
    _ZTIN5POGEL6OCTREEINS_7PHYSICS5SOLIDEEE @661 DATA
    _ZTIN5POGEL6SPRITEE @662 DATA
    _ZTIN5POGEL7FRACTALE @663 DATA
    _ZTIN5POGEL7PHYSICS10SIMULATIONE @664 DATA
    _ZTIN5POGEL7PHYSICS11SINGULARITYE @665 DATA
    _ZTIN5POGEL7PHYSICS3FANE @666 DATA
    _ZTIN5POGEL7PHYSICS5SOLIDE @667 DATA
    _ZTIN5POGEL7PHYSICS8DYNAMICSE @668 DATA
    _ZTIN5POGEL7PHYSICS8FOUNTAINE @669 DATA
    _ZTIN5POGEL7PHYSICS9MICROCOSME @670 DATA
    _ZTSN5POGEL4VIEWE @671 DATA
    _ZTSN5POGEL5IMAGEE @672 DATA
    _ZTSN5POGEL6OBJECTE @673 DATA
    _ZTSN5POGEL6OCTREEINS_7PHYSICS5SOLIDEEE @674 DATA
    _ZTSN5POGEL6SPRITEE @675 DATA
    _ZTSN5POGEL7FRACTALE @676 DATA
    _ZTSN5POGEL7PHYSICS10SIMULATIONE @677 DATA
    _ZTSN5POGEL7PHYSICS11SINGULARITYE @678 DATA
    _ZTSN5POGEL7PHYSICS3FANE @679 DATA
    _ZTSN5POGEL7PHYSICS5SOLIDE @680 DATA
    _ZTSN5POGEL7PHYSICS8DYNAMICSE @681 DATA
    _ZTSN5POGEL7PHYSICS8FOUNTAINE @682 DATA
    _ZTSN5POGEL7PHYSICS9MICROCOSME @683 DATA
    _ZTVN5POGEL4VIEWE @684 DATA
    _ZTVN5POGEL6OBJECTE @685 DATA
    _ZTVN5POGEL6OCTREEINS_7PHYSICS5SOLIDEEE @686 DATA
    _ZTVN5POGEL6SPRITEE @687 DATA
    _ZTVN5POGEL7FRACTALE @688 DATA
    _ZTVN5POGEL7PHYSICS10SIMULATIONE @689 DATA
    _ZTVN5POGEL7PHYSICS11SINGULARITYE @690 DATA
    _ZTVN5POGEL7PHYSICS3FANE @691 DATA
    _ZTVN5POGEL7PHYSICS5SOLIDE @692 DATA
    _ZTVN5POGEL7PHYSICS8DYNAMICSE @693 DATA
    _ZTVN5POGEL7PHYSICS8FOUNTAINE @694 DATA
    _ZTVN5POGEL7PHYSICS9MICROCOSME @695 DATA
    _ZThn120_N5POGEL7PHYSICS9MICROCOSM4drawEv @696
    _ZThn120_N5POGEL7PHYSICS9MICROCOSM4stepEv @697
    _ZThn120_N5POGEL7PHYSICS9MICROCOSM5buildEv @698
    _ZThn92_N5POGEL7PHYSICS8FOUNTAIN4drawEv @699
    _ZThn92_N5POGEL7PHYSICS8FOUNTAIN4stepEv @700
    _ZThn92_N5POGEL7PHYSICS8FOUNTAIN5buildEv @701
    _get_output_format @702
    imageList @703 DATA
