EXPORTS
    _ZN5POGEL4LINE4drawEv @1
    _ZN5POGEL4LINEC1ENS_5POINTES1_ @2
    _ZN5POGEL5COLOR3setEv @3
    _ZN5POGEL5COLORC1Effff @4
    _ZN5POGEL5COLORC1Ev @5
    _ZN5POGEL5POINT8distanceES0_ @6
    _ZN5POGEL5POINTC1Efff @7
    _ZN5POGEL5POINTC1Ev @8
    _ZN5POGEL5POINTC2Ev @9
    _ZN5POGEL5POINTaSERKS0_ @10
    _ZN5POGEL5POINTdvEf @11
    _ZN5POGEL5POINTeqES0_ @12
    _ZN5POGEL5POINTmlEf @13
    _ZN5POGEL5POINTpLERKS0_ @14
    _ZN5POGEL6OCTREEINS_7PHYSICS5SOLIDEE11numchildrenEv @15
    _ZN5POGEL6OCTREEINS_7PHYSICS5SOLIDEE13getmasscenterEv @16
    _ZN5POGEL6OCTREEINS_7PHYSICS5SOLIDEE5childEj @17
    _ZN5POGEL6OCTREEINS_7PHYSICS5SOLIDEE6objectEj @18
    _ZN5POGEL6OCTREEINS_7PHYSICS5SOLIDEE7getMassEv @19
    _ZN5POGEL6OCTREEINS_7PHYSICS5SOLIDEE7getpullENS_5POINTEf @20
    _ZN5POGEL6OCTREEINS_7PHYSICS5SOLIDEE7numobjsEv @21
    _ZN5POGEL6OCTREEINS_7PHYSICS5SOLIDEE9objhasposENS_5POINTE @22
    _ZN5POGEL6OCTREEINS_7PHYSICS5SOLIDEED1Ev @23
    _ZN5POGEL6VECTORC1Ev @24
    _ZN5POGEL6VECTORdVERKf @25
    _ZN5POGEL6VECTORmLERKf @26
    _ZN5POGEL6VECTORpLERKS0_ @27
    _ZN5POGEL7PHYSICS10SIMULATIOND1Ev @28
    _ZN5POGEL7PHYSICS11SINGULARITY12getIntencityEv @29
    _ZN5POGEL7PHYSICS11SINGULARITY7getpullENS_5POINTEf @30
    _ZN5POGEL7PHYSICS11SINGULARITY9getCenterEv @31
    _ZN5POGEL7PHYSICS11SINGULARITYC1ENS_5POINTEf @32
    _ZN5POGEL7PHYSICS14GRAVITYCLUSTERD1Ev @33
    _ZN5POGEL7PHYSICS4FLOWD1Ev @34
    _ZN5POGEL7PHYSICS5SOLID11getpositionEv @35
    _ZN5POGEL7PHYSICS8DYNAMICS19FORCEfastAccessListEv @36
    _ZN5POGEL7PHYSICS8DYNAMICS9destroyotEv @37
    _ZN5POGEL7PHYSICS8DYNAMICSD1Ev @38
    _ZN5POGEL7PHYSICS8DYNAMICSD2Ev @39
    _ZN5POGEL8BOUNDINGC1Ev @40
    _ZN8HASHLISTIPN5POGEL6OCTREEINS0_7PHYSICS5SOLIDEEEE3getEj @41
    _ZN8HASHLISTIPN5POGEL6OCTREEINS0_7PHYSICS5SOLIDEEEE5clearEv @42
    _ZN8HASHLISTIPN5POGEL6OCTREEINS0_7PHYSICS5SOLIDEEEE6lengthEv @43
    _ZN8HASHLISTIPN5POGEL6OCTREEINS0_7PHYSICS5SOLIDEEEED1Ev @44
    _ZN8HASHLISTIPN5POGEL6OCTREEINS0_7PHYSICS5SOLIDEEEEixEj @45
    _ZN8HASHLISTIPN5POGEL7PHYSICS5SOLIDEE23FORCEresizeInternalListEj @46
    _ZN8HASHLISTIPN5POGEL7PHYSICS5SOLIDEE3addEPS4_ @47
    _ZN8HASHLISTIPN5POGEL7PHYSICS5SOLIDEE3addES3_ @48
    _ZN8HASHLISTIPN5POGEL7PHYSICS5SOLIDEE3getEj @49
    _ZN8HASHLISTIPN5POGEL7PHYSICS5SOLIDEE5clearEv @50
    _ZN8HASHLISTIPN5POGEL7PHYSICS5SOLIDEE6lengthEv @51
    _ZN8HASHLISTIPN5POGEL7PHYSICS5SOLIDEE6removeEj @52
    _ZN8HASHLISTIPN5POGEL7PHYSICS5SOLIDEE9faststealEPS4_ @53
    _ZN8HASHLISTIPN5POGEL7PHYSICS5SOLIDEEC1Ev @54
    _ZN8HASHLISTIPN5POGEL7PHYSICS5SOLIDEED1Ev @55
    _ZN8HASHLISTIPN5POGEL7PHYSICS5SOLIDEEixEj @56
    _ZN8HASHLISTIjE5clearEv @57
    _ZN8HASHLISTIjED1Ev @58
    _ZN8Renderer3CMD12argumentListE @59 DATA
    _ZN8Renderer3CMD13argumentCountE @60 DATA
    _ZN8Renderer3CMD3getEiPPc @61
    _ZN8Renderer3Key2UpEhii @62
    _ZN8Renderer3Key4DownEhii @63
    _ZN8Renderer3Key4keysE @64 DATA
    _ZN8Renderer3Key4lastE @65 DATA
    _ZN8Renderer4IdleEv @66
    _ZN8Renderer4InitEv @67
    _ZN8Renderer4pposE @68 DATA
    _ZN8Renderer4protE @69 DATA
    _ZN8Renderer5Mouse11TranslationEv @70
    _ZN8Renderer5Mouse1XE @71 DATA
    _ZN8Renderer5Mouse1YE @72 DATA
    _ZN8Renderer5Mouse5MovedEii @73
    _ZN8Renderer5Mouse5stateE @74 DATA
    _ZN8Renderer5Mouse6buttonE @75 DATA
    _ZN8Renderer5Mouse6prev_xE @76 DATA
    _ZN8Renderer5Mouse6prev_yE @77 DATA
    _ZN8Renderer5Mouse7ClickedEiiii @78
    _ZN8Renderer5Mouse8RotationEv @79
    _ZN8Renderer5Mouse8static_xE @80 DATA
    _ZN8Renderer5Mouse8static_yE @81 DATA
    _ZN8Renderer6Window4Size5widthE @82 DATA
    _ZN8Renderer6Window4Size6heightE @83 DATA
    _ZN8Renderer6Window6CreateESsiiii @84
    _ZN8Renderer6Window6ResizeEii @85
    _ZN8Renderer6Window7toOrthoEv @86
    _ZN8Renderer6Window9toFrustumEv @87
    _ZN8Renderer6camposE @88 DATA
    _ZN8Renderer6camrotE @89 DATA
    _ZN8Renderer7DisplayEv @90
    _ZN8Renderer7Physics10Simulation3incEv @91
    _ZN8Renderer7Physics10Simulation5isdynEv @92
    _ZN8Renderer7Physics10Simulation6getSimEv @93
    _ZN8Renderer7Physics10Simulation6setincEb @94
    _ZN8Renderer7Physics10Simulation7getNameEv @95
    _ZN8Renderer7Physics10SimulationC1ESsPN5POGEL7PHYSICS10SIMULATIONE @96
    _ZN8Renderer7Physics10SimulationC1ESsPN5POGEL7PHYSICS8DYNAMICSE @97
    _ZN8Renderer7Physics10SimulationC2ESsPN5POGEL7PHYSICS10SIMULATIONE @98
    _ZN8Renderer7Physics10SimulationC2ESsPN5POGEL7PHYSICS8DYNAMICSE @99
    _ZN8Renderer7Physics10SimulationD1Ev @100
    _ZN8Renderer7Physics10SimulationD2Ev @101
    _ZN8Renderer7Physics11simulationsE @102 DATA
    _ZN8Renderer7Physics13addSimulationESsb @103
    _ZN8Renderer7Physics13getSimulationESs @104
    _ZN8Renderer7lastdurE @105 DATA
    _ZN8Renderer8drawLockE @106 DATA
    _ZN8Renderer9IncrimentEv @107
    _ZN9CLASSLISTIN5POGEL7PHYSICS11SINGULARITYEE5clearEv @108
    _ZN9CLASSLISTIN5POGEL7PHYSICS11SINGULARITYEED1Ev @109
    _ZN9CLASSLISTIN5POGEL7PHYSICS3FANEE5clearEv @110
    _ZN9CLASSLISTIN5POGEL7PHYSICS3FANEED1Ev @111
    _ZN9CLASSLISTIP9arraylistIPN5POGEL6OCTREEINS1_7PHYSICS5SOLIDEEEEE3getEj @112
    _ZN9CLASSLISTIP9arraylistIPN5POGEL6OCTREEINS1_7PHYSICS5SOLIDEEEEE5clearEv @113
    _ZN9CLASSLISTIP9arraylistIPN5POGEL6OCTREEINS1_7PHYSICS5SOLIDEEEEE6lengthEv @114
    _ZN9CLASSLISTIP9arraylistIPN5POGEL6OCTREEINS1_7PHYSICS5SOLIDEEEEE6removeEj @115
    _ZN9CLASSLISTIP9arraylistIPN5POGEL6OCTREEINS1_7PHYSICS5SOLIDEEEEED1Ev @116
    _ZN9CLASSLISTIP9arraylistIPN5POGEL6OCTREEINS1_7PHYSICS5SOLIDEEEEEixEj @117
    _ZN9CLASSLISTIP9arraylistIPN5POGEL6OCTREEINS1_7PHYSICS5SOLIDEEEEEmIEj @118
    _ZN9CLASSLISTIP9arraylistIPN5POGEL7PHYSICS5SOLIDEEE3addES6_ @119
    _ZN9CLASSLISTIP9arraylistIPN5POGEL7PHYSICS5SOLIDEEE3getEj @120
    _ZN9CLASSLISTIP9arraylistIPN5POGEL7PHYSICS5SOLIDEEE5clearEv @121
    _ZN9CLASSLISTIP9arraylistIPN5POGEL7PHYSICS5SOLIDEEE6lengthEv @122
    _ZN9CLASSLISTIP9arraylistIPN5POGEL7PHYSICS5SOLIDEEE6removeEj @123
    _ZN9CLASSLISTIP9arraylistIPN5POGEL7PHYSICS5SOLIDEEEC1Ev @124
    _ZN9CLASSLISTIP9arraylistIPN5POGEL7PHYSICS5SOLIDEEED1Ev @125
    _ZN9CLASSLISTIP9arraylistIPN5POGEL7PHYSICS5SOLIDEEEixEj @126
    _ZN9CLASSLISTIP9arraylistIPN5POGEL7PHYSICS5SOLIDEEEmIEj @127
    _ZN9CLASSLISTIP9arraylistIPN5POGEL7PHYSICS5SOLIDEEEpLES6_ @128
    _ZN9CLASSLISTIP9arraylistIjEE3getEj @129
    _ZN9CLASSLISTIP9arraylistIjEE5clearEv @130
    _ZN9CLASSLISTIP9arraylistIjEE6lengthEv @131
    _ZN9CLASSLISTIP9arraylistIjEE6removeEj @132
    _ZN9CLASSLISTIP9arraylistIjEED1Ev @133
    _ZN9CLASSLISTIP9arraylistIjEEixEj @134
    _ZN9CLASSLISTIP9arraylistIjEEmIEj @135
    _ZN9CLASSLISTIPN8Renderer7Physics10SimulationEE3addES3_ @136
    _ZN9CLASSLISTIPN8Renderer7Physics10SimulationEE3getEj @137
    _ZN9CLASSLISTIPN8Renderer7Physics10SimulationEE6lengthEv @138
    _ZN9CLASSLISTIPN8Renderer7Physics10SimulationEE6removeEj @139
    _ZN9CLASSLISTIPN8Renderer7Physics10SimulationEEC1Ev @140
    _ZN9CLASSLISTIPN8Renderer7Physics10SimulationEED1Ev @141
    _ZN9CLASSLISTIPN8Renderer7Physics10SimulationEEixEj @142
    _ZN9arraylistIPN5POGEL6OCTREEINS0_7PHYSICS5SOLIDEEEE4seekEi @143
    _ZN9arraylistIPN5POGEL6OCTREEINS0_7PHYSICS5SOLIDEEEE5emptyEv @144
    _ZN9arraylistIPN5POGEL6OCTREEINS0_7PHYSICS5SOLIDEEEE5resetEv @145
    _ZN9arraylistIPN5POGEL6OCTREEINS0_7PHYSICS5SOLIDEEEED1Ev @146
    _ZN9arraylistIPN5POGEL6OCTREEINS0_7PHYSICS5SOLIDEEEEixEi @147
    _ZN9arraylistIPN5POGEL7PHYSICS5SOLIDEE3addES3_ @148
    _ZN9arraylistIPN5POGEL7PHYSICS5SOLIDEE4seekEi @149
    _ZN9arraylistIPN5POGEL7PHYSICS5SOLIDEE5emptyEv @150
    _ZN9arraylistIPN5POGEL7PHYSICS5SOLIDEE5resetEv @151
    _ZN9arraylistIPN5POGEL7PHYSICS5SOLIDEE6removeEi @152
    _ZN9arraylistIPN5POGEL7PHYSICS5SOLIDEEC1Ev @153
    _ZN9arraylistIPN5POGEL7PHYSICS5SOLIDEED1Ev @154
    _ZN9arraylistIPN5POGEL7PHYSICS5SOLIDEEixEi @155
    _ZN9arraylistIjE5emptyEv @156
    _ZN9arraylistIjE5resetEv @157
    _ZN9arraylistIjED1Ev @158
    _ZNK9arraylistIPN5POGEL7PHYSICS5SOLIDEE6lengthEv @159
    _ZTIN5POGEL6OCTREEINS_7PHYSICS5SOLIDEEE @160 DATA
    _ZTIN5POGEL7PHYSICS11SINGULARITYE @161 DATA
    _ZTSN5POGEL6OCTREEINS_7PHYSICS5SOLIDEEE @162 DATA
    _ZTSN5POGEL7PHYSICS11SINGULARITYE @163 DATA
    _ZTVN5POGEL6OCTREEINS_7PHYSICS5SOLIDEEE @164 DATA
    _ZTVN5POGEL7PHYSICS11SINGULARITYE @165 DATA
    __imp___glutCreateMenuWithExit@8 @166 DATA
    __imp___glutCreateWindowWithExit@8 @167 DATA
    __imp___glutInitWithExit@12 @168 DATA
    __imp_glutDisplayFunc@4 @169 DATA
    __imp_glutIdleFunc@4 @170 DATA
    __imp_glutInitDisplayMode@4 @171 DATA
    __imp_glutInitWindowPosition@8 @172 DATA
    __imp_glutInitWindowSize@8 @173 DATA
    __imp_glutKeyboardFunc@4 @174 DATA
    __imp_glutKeyboardUpFunc@4 @175 DATA
    __imp_glutMotionFunc@4 @176 DATA
    __imp_glutMouseFunc@4 @177 DATA
    __imp_glutPassiveMotionFunc@4 @178 DATA
    __imp_glutPostRedisplay@0 @179 DATA
    __imp_glutReshapeFunc@4 @180 DATA
    __imp_glutSwapBuffers@0 @181 DATA
    _get_output_format @182
